---
triple:          'arm64-apple-darwin'
binary-path:     MegaXOs
relocations:
  - { offsetInCU: 0x706D, offset: 0x706D, size: 0x8, addend: 0x0, symName: __ZNSt3__17advanceB8ne180100IPNS_6vectorINS1_IhNS_9allocatorIhEEEENS2_IS4_EEEEllvEEvRT_T0_, symObjAddr: 0xC84, symBinAddr: 0x100001304, symSize: 0x38 }
  - { offsetInCU: 0x79E3, offset: 0x79E3, size: 0x8, addend: 0x0, symName: __ZNSt3__17advanceB8ne180100IPNS_6vectorIhNS_9allocatorIhEEEEllvEEvRT_T0_, symObjAddr: 0x48F0, symBinAddr: 0x100004F70, symSize: 0x38 }
  - { offsetInCU: 0x7A4E, offset: 0x7A4E, size: 0x8, addend: 0x0, symName: __ZNSt3__17advanceB8ne180100IPhllvEEvRT_T0_, symObjAddr: 0x4F60, symBinAddr: 0x1000055E0, symSize: 0x38 }
  - { offsetInCU: 0x7AD9, offset: 0x7AD9, size: 0x8, addend: 0x0, symName: __ZNSt3__17advanceB8ne180100IPtllvEEvRT_T0_, symObjAddr: 0x5730, symBinAddr: 0x100005DB0, symSize: 0x38 }
  - { offsetInCU: 0x7B64, offset: 0x7B64, size: 0x8, addend: 0x0, symName: __ZNSt3__124__put_character_sequenceB8ne180100IcNS_11char_traitsIcEEEERNS_13basic_ostreamIT_T0_EES7_PKS4_m, symObjAddr: 0x6590, symBinAddr: 0x100006C10, symSize: 0x1EC }
  - { offsetInCU: 0x9B2A, offset: 0x9B2A, size: 0x8, addend: 0x0, symName: __ZNSt3__1lsB8ne180100INS_11char_traitsIcEEEERNS_13basic_ostreamIcT_EES6_PKc, symObjAddr: 0x2F4, symBinAddr: 0x100000974, symSize: 0x48 }
  - { offsetInCU: 0x9B70, offset: 0x9B70, size: 0x8, addend: 0x0, symName: __ZNSt3__111make_uniqueB8ne180100I16Ultimate_XO_moveJiiEEENS_11__unique_ifIT_E15__unique_singleEDpOT0_, symObjAddr: 0x33C, symBinAddr: 0x1000009BC, symSize: 0x7C }
  - { offsetInCU: 0x9BC6, offset: 0x9BC6, size: 0x8, addend: 0x0, symName: __ZNSt3__18distanceB8ne180100IPNS_6vectorINS1_IhNS_9allocatorIhEEEENS2_IS4_EEEEEENS_15iterator_traitsIT_E15difference_typeES9_S9_, symObjAddr: 0x804, symBinAddr: 0x100000E84, symSize: 0x2C }
  - { offsetInCU: 0x9C09, offset: 0x9C09, size: 0x8, addend: 0x0, symName: __ZNSt3__14nextB8ne180100IPNS_6vectorINS1_IhNS_9allocatorIhEEEENS2_IS4_EEEELi0EEET_S8_NS_15iterator_traitsIS8_E15difference_typeE, symObjAddr: 0x898, symBinAddr: 0x100000F18, symSize: 0x34 }
  - { offsetInCU: 0x9C52, offset: 0x9C52, size: 0x8, addend: 0x0, symName: __ZNSt3__14copyB8ne180100IPNS_6vectorINS1_IhNS_9allocatorIhEEEENS2_IS4_EEEES7_EET0_T_S9_S8_, symObjAddr: 0x8CC, symBinAddr: 0x100000F4C, symSize: 0x40 }
  - { offsetInCU: 0x9CAC, offset: 0x9CAC, size: 0x8, addend: 0x0, symName: __ZNSt3__16__copyB8ne180100INS_17_ClassicAlgPolicyEPNS_6vectorINS2_IhNS_9allocatorIhEEEENS3_IS5_EEEES8_S8_EENS_4pairIT0_T2_EESA_T1_SB_, symObjAddr: 0x998, symBinAddr: 0x100001018, symSize: 0x44 }
  - { offsetInCU: 0x9D18, offset: 0x9D18, size: 0x8, addend: 0x0, symName: __ZNSt3__121__convert_to_integralB8ne180100El, symObjAddr: 0xCBC, symBinAddr: 0x10000133C, symSize: 0x14 }
  - { offsetInCU: 0x9D44, offset: 0x9D44, size: 0x8, addend: 0x0, symName: __ZNSt3__19__advanceB8ne180100IPNS_6vectorINS1_IhNS_9allocatorIhEEEENS2_IS4_EEEEEEvRT_NS_15iterator_traitsIS8_E15difference_typeENS_26random_access_iterator_tagE, symObjAddr: 0xCD0, symBinAddr: 0x100001350, symSize: 0x30 }
  - { offsetInCU: 0x9D8D, offset: 0x9D8D, size: 0x8, addend: 0x0, symName: __ZNSt3__130__uninitialized_allocator_copyB8ne180100INS_9allocatorINS_6vectorINS2_IhNS1_IhEEEENS1_IS4_EEEEEEPS6_S8_S8_EET2_RT_T0_T1_S9_, symObjAddr: 0xD3C, symBinAddr: 0x1000013BC, symSize: 0x80 }
  - { offsetInCU: 0x9E2A, offset: 0x9E2A, size: 0x8, addend: 0x0, symName: __ZNSt3__114__unwrap_rangeB8ne180100IPNS_6vectorINS1_IhNS_9allocatorIhEEEENS2_IS4_EEEES7_EENS_4pairIT0_S9_EET_SB_, symObjAddr: 0xE5C, symBinAddr: 0x1000014DC, symSize: 0x60 }
  - { offsetInCU: 0x9E76, offset: 0x9E76, size: 0x8, addend: 0x0, symName: __ZNSt3__135__uninitialized_allocator_copy_implB8ne180100INS_9allocatorINS_6vectorINS2_IhNS1_IhEEEENS1_IS4_EEEEEEPS6_S8_S8_EET2_RT_T0_T1_S9_, symObjAddr: 0xEBC, symBinAddr: 0x10000153C, symSize: 0xF4 }
  - { offsetInCU: 0x9F14, offset: 0x9F14, size: 0x8, addend: 0x0, symName: __ZNSt3__113__unwrap_iterB8ne180100IPNS_6vectorINS1_IhNS_9allocatorIhEEEENS2_IS4_EEEENS_18__unwrap_iter_implIS7_Lb1EEELi0EEEDTclsrT0_8__unwrapclsr3stdE7declvalIT_EEEESB_, symObjAddr: 0xFB0, symBinAddr: 0x100001630, symSize: 0x24 }
  - { offsetInCU: 0x9F58, offset: 0x9F58, size: 0x8, addend: 0x0, symName: __ZNSt3__113__rewrap_iterB8ne180100IPNS_6vectorINS1_IhNS_9allocatorIhEEEENS2_IS4_EEEES7_NS_18__unwrap_iter_implIS7_Lb1EEEEET_SA_T0_, symObjAddr: 0xFD4, symBinAddr: 0x100001654, symSize: 0x3C }
  - { offsetInCU: 0x9FAD, offset: 0x9FAD, size: 0x8, addend: 0x0, symName: __ZNSt3__19make_pairB8ne180100IPNS_6vectorINS1_IhNS_9allocatorIhEEEENS2_IS4_EEEES7_EENS_4pairINS_18__unwrap_ref_decayIT_E4typeENS9_IT0_E4typeEEEOSA_OSD_, symObjAddr: 0x1010, symBinAddr: 0x100001690, symSize: 0x38 }
  - { offsetInCU: 0xA0D0, offset: 0xA0D0, size: 0x8, addend: 0x0, symName: __ZNSt3__122__make_exception_guardB8ne180100INS_29_AllocatorDestroyRangeReverseINS_9allocatorINS_6vectorINS3_IhNS2_IhEEEENS2_IS5_EEEEEEPS7_EEEENS_28__exception_guard_exceptionsIT_EESC_, symObjAddr: 0x10B8, symBinAddr: 0x100001738, symSize: 0x4C }
  - { offsetInCU: 0xA106, offset: 0xA106, size: 0x8, addend: 0x0, symName: __ZNSt3__112__to_addressB8ne180100INS_6vectorINS1_IhNS_9allocatorIhEEEENS2_IS4_EEEEEEPT_S8_, symObjAddr: 0x117C, symBinAddr: 0x1000017FC, symSize: 0x14 }
  - { offsetInCU: 0xA13B, offset: 0xA13B, size: 0x8, addend: 0x0, symName: __ZNSt3__122__make_exception_guardB8ne180100INS_6vectorINS1_IhNS_9allocatorIhEEEENS2_IS4_EEE16__destroy_vectorEEENS_28__exception_guard_exceptionsIT_EES9_, symObjAddr: 0x1570, symBinAddr: 0x100001BF0, symSize: 0x40 }
  - { offsetInCU: 0xA170, offset: 0xA170, size: 0x8, addend: 0x0, symName: __ZNSt3__119__allocate_at_leastB8ne180100INS_9allocatorINS_6vectorIhNS1_IhEEEEEEEENS_19__allocation_resultINS_16allocator_traitsIT_E7pointerEEERS8_m, symObjAddr: 0x1860, symBinAddr: 0x100001EE0, symSize: 0x40 }
  - { offsetInCU: 0xA1B3, offset: 0xA1B3, size: 0x8, addend: 0x0, symName: __ZNSt3__13minB8ne180100ImEERKT_S3_S3_, symObjAddr: 0x1904, symBinAddr: 0x100001F84, symSize: 0x2C }
  - { offsetInCU: 0xA3F7, offset: 0xA3F7, size: 0x8, addend: 0x0, symName: __ZNSt3__13minB8ne180100ImNS_6__lessIvvEEEERKT_S5_S5_T0_, symObjAddr: 0x1974, symBinAddr: 0x100001FF4, symSize: 0x54 }
  - { offsetInCU: 0xA496, offset: 0xA496, size: 0x8, addend: 0x0, symName: __ZNSt3__120__throw_length_errorB8ne180100EPKc, symObjAddr: 0x1A1C, symBinAddr: 0x10000209C, symSize: 0x64 }
  - { offsetInCU: 0xA4BE, offset: 0xA4BE, size: 0x8, addend: 0x0, symName: __ZNSt3__117__libcpp_allocateB8ne180100Emm, symObjAddr: 0x1B90, symBinAddr: 0x100002210, symSize: 0x28 }
  - { offsetInCU: 0xA4FB, offset: 0xA4FB, size: 0x8, addend: 0x0, symName: __ZNSt3__121__libcpp_operator_newB8ne180100IJmEEEPvDpT_, symObjAddr: 0x1BB8, symBinAddr: 0x100002238, symSize: 0x24 }
  - { offsetInCU: 0xA534, offset: 0xA534, size: 0x8, addend: 0x0, symName: __ZNSt3__130__uninitialized_allocator_copyB8ne180100INS_9allocatorINS_6vectorIhNS1_IhEEEEEEPS4_S6_S6_EET2_RT_T0_T1_S7_, symObjAddr: 0x1C88, symBinAddr: 0x100002308, symSize: 0x80 }
  - { offsetInCU: 0xA5D1, offset: 0xA5D1, size: 0x8, addend: 0x0, symName: __ZNSt3__114__unwrap_rangeB8ne180100IPNS_6vectorIhNS_9allocatorIhEEEES5_EENS_4pairIT0_S7_EET_S9_, symObjAddr: 0x1D80, symBinAddr: 0x100002400, symSize: 0x60 }
  - { offsetInCU: 0xA61D, offset: 0xA61D, size: 0x8, addend: 0x0, symName: __ZNSt3__135__uninitialized_allocator_copy_implB8ne180100INS_9allocatorINS_6vectorIhNS1_IhEEEEEEPS4_S6_S6_EET2_RT_T0_T1_S7_, symObjAddr: 0x1DE0, symBinAddr: 0x100002460, symSize: 0xF4 }
  - { offsetInCU: 0xA6BB, offset: 0xA6BB, size: 0x8, addend: 0x0, symName: __ZNSt3__113__unwrap_iterB8ne180100IPNS_6vectorIhNS_9allocatorIhEEEENS_18__unwrap_iter_implIS5_Lb1EEELi0EEEDTclsrT0_8__unwrapclsr3stdE7declvalIT_EEEES9_, symObjAddr: 0x1ED4, symBinAddr: 0x100002554, symSize: 0x24 }
  - { offsetInCU: 0xA6FF, offset: 0xA6FF, size: 0x8, addend: 0x0, symName: __ZNSt3__113__rewrap_iterB8ne180100IPNS_6vectorIhNS_9allocatorIhEEEES5_NS_18__unwrap_iter_implIS5_Lb1EEEEET_S8_T0_, symObjAddr: 0x1EF8, symBinAddr: 0x100002578, symSize: 0x3C }
  - { offsetInCU: 0xA754, offset: 0xA754, size: 0x8, addend: 0x0, symName: __ZNSt3__19make_pairB8ne180100IPNS_6vectorIhNS_9allocatorIhEEEES5_EENS_4pairINS_18__unwrap_ref_decayIT_E4typeENS7_IT0_E4typeEEEOS8_OSB_, symObjAddr: 0x1F34, symBinAddr: 0x1000025B4, symSize: 0x38 }
  - { offsetInCU: 0xA877, offset: 0xA877, size: 0x8, addend: 0x0, symName: __ZNSt3__122__make_exception_guardB8ne180100INS_29_AllocatorDestroyRangeReverseINS_9allocatorINS_6vectorIhNS2_IhEEEEEEPS5_EEEENS_28__exception_guard_exceptionsIT_EESA_, symObjAddr: 0x1FDC, symBinAddr: 0x10000265C, symSize: 0x4C }
  - { offsetInCU: 0xA8AD, offset: 0xA8AD, size: 0x8, addend: 0x0, symName: __ZNSt3__112__to_addressB8ne180100INS_6vectorIhNS_9allocatorIhEEEEEEPT_S6_, symObjAddr: 0x20A0, symBinAddr: 0x100002720, symSize: 0x14 }
  - { offsetInCU: 0xA8E2, offset: 0xA8E2, size: 0x8, addend: 0x0, symName: __ZNSt3__122__make_exception_guardB8ne180100INS_6vectorIhNS_9allocatorIhEEE16__destroy_vectorEEENS_28__exception_guard_exceptionsIT_EES7_, symObjAddr: 0x248C, symBinAddr: 0x100002B0C, symSize: 0x40 }
  - { offsetInCU: 0xA917, offset: 0xA917, size: 0x8, addend: 0x0, symName: __ZNSt3__119__allocate_at_leastB8ne180100INS_9allocatorIhEEEENS_19__allocation_resultINS_16allocator_traitsIT_E7pointerEEERS5_m, symObjAddr: 0x2774, symBinAddr: 0x100002DF4, symSize: 0x40 }
  - { offsetInCU: 0xA95A, offset: 0xA95A, size: 0x8, addend: 0x0, symName: __ZNSt3__130__uninitialized_allocator_copyB8ne180100INS_9allocatorIhEEPhS3_S3_EET2_RT_T0_T1_S4_, symObjAddr: 0x2954, symBinAddr: 0x100002FD4, symSize: 0x80 }
  - { offsetInCU: 0xA9F7, offset: 0xA9F7, size: 0x8, addend: 0x0, symName: __ZNSt3__114__unwrap_rangeB8ne180100IPhS1_EENS_4pairIT0_S3_EET_S5_, symObjAddr: 0x2A44, symBinAddr: 0x1000030C4, symSize: 0x60 }
  - { offsetInCU: 0xAA43, offset: 0xAA43, size: 0x8, addend: 0x0, symName: __ZNSt3__135__uninitialized_allocator_copy_implB8ne180100INS_9allocatorIhEEhhhLPv0EEEPT2_RT_PT0_S9_S5_, symObjAddr: 0x2AA4, symBinAddr: 0x100003124, symSize: 0x38 }
  - { offsetInCU: 0xAAC4, offset: 0xAAC4, size: 0x8, addend: 0x0, symName: __ZNSt3__113__unwrap_iterB8ne180100IPhNS_18__unwrap_iter_implIS1_Lb1EEELi0EEEDTclsrT0_8__unwrapclsr3stdE7declvalIT_EEEES5_, symObjAddr: 0x2ADC, symBinAddr: 0x10000315C, symSize: 0x24 }
  - { offsetInCU: 0xAB08, offset: 0xAB08, size: 0x8, addend: 0x0, symName: __ZNSt3__113__rewrap_iterB8ne180100IPhS1_NS_18__unwrap_iter_implIS1_Lb1EEEEET_S4_T0_, symObjAddr: 0x2B00, symBinAddr: 0x100003180, symSize: 0x3C }
  - { offsetInCU: 0xAB5D, offset: 0xAB5D, size: 0x8, addend: 0x0, symName: __ZNSt3__19make_pairB8ne180100IPhS1_EENS_4pairINS_18__unwrap_ref_decayIT_E4typeENS3_IT0_E4typeEEEOS4_OS7_, symObjAddr: 0x2B3C, symBinAddr: 0x1000031BC, symSize: 0x38 }
  - { offsetInCU: 0xACAF, offset: 0xACAF, size: 0x8, addend: 0x0, symName: __ZNSt3__14copyB8ne180100IPhS1_EET0_T_S3_S2_, symObjAddr: 0x2BE4, symBinAddr: 0x100003264, symSize: 0x40 }
  - { offsetInCU: 0xAD09, offset: 0xAD09, size: 0x8, addend: 0x0, symName: __ZNSt3__16__copyB8ne180100INS_17_ClassicAlgPolicyEPhS2_S2_EENS_4pairIT0_T2_EES4_T1_S5_, symObjAddr: 0x2C24, symBinAddr: 0x1000032A4, symSize: 0x44 }
  - { offsetInCU: 0xAD75, offset: 0xAD75, size: 0x8, addend: 0x0, symName: __ZNSt3__123__dispatch_copy_or_moveB8ne180100INS_17_ClassicAlgPolicyENS_11__copy_loopIS1_EENS_14__copy_trivialEPhS5_S5_EENS_4pairIT2_T4_EES7_T3_S8_, symObjAddr: 0x2C68, symBinAddr: 0x1000032E8, symSize: 0x44 }
  - { offsetInCU: 0xADF3, offset: 0xADF3, size: 0x8, addend: 0x0, symName: __ZNSt3__121__unwrap_and_dispatchB8ne180100INS_10__overloadINS_11__copy_loopINS_17_ClassicAlgPolicyEEENS_14__copy_trivialEEEPhS7_S7_Li0EEENS_4pairIT0_T2_EES9_T1_SA_, symObjAddr: 0x2CAC, symBinAddr: 0x10000332C, symSize: 0xB4 }
  - { offsetInCU: 0xAF03, offset: 0xAF03, size: 0x8, addend: 0x0, symName: __ZNSt3__114__rewrap_rangeB8ne180100IPhS1_EET_S2_T0_, symObjAddr: 0x2DA8, symBinAddr: 0x100003428, symSize: 0x2C }
  - { offsetInCU: 0xAF4F, offset: 0xAF4F, size: 0x8, addend: 0x0, symName: __ZNSt3__119__copy_trivial_implB8ne180100IhhEENS_4pairIPT_PT0_EES3_S3_S5_, symObjAddr: 0x2DD4, symBinAddr: 0x100003454, symSize: 0x78 }
  - { offsetInCU: 0xAFB7, offset: 0xAFB7, size: 0x8, addend: 0x0, symName: __ZNSt3__119__constexpr_memmoveB8ne180100IhhLi0EEEPT_S2_PT0_NS_15__element_countE, symObjAddr: 0x2E4C, symBinAddr: 0x1000034CC, symSize: 0x64 }
  - { offsetInCU: 0xB025, offset: 0xB025, size: 0x8, addend: 0x0, symName: __ZNSt3__19make_pairB8ne180100IRPhS1_EENS_4pairINS_18__unwrap_ref_decayIT_E4typeENS4_IT0_E4typeEEEOS5_OS8_, symObjAddr: 0x2EB0, symBinAddr: 0x100003530, symSize: 0x38 }
  - { offsetInCU: 0xB0C7, offset: 0xB0C7, size: 0x8, addend: 0x0, symName: __ZNSt3__112__to_addressB8ne180100IhEEPT_S2_, symObjAddr: 0x2F7C, symBinAddr: 0x1000035FC, symSize: 0x14 }
  - { offsetInCU: 0xB0FC, offset: 0xB0FC, size: 0x8, addend: 0x0, symName: __ZNSt3__119__libcpp_deallocateB8ne180100EPvmm, symObjAddr: 0x3288, symBinAddr: 0x100003908, symSize: 0x30 }
  - { offsetInCU: 0xB144, offset: 0xB144, size: 0x8, addend: 0x0, symName: __ZNSt3__127__do_deallocate_handle_sizeB8ne180100IJEEEvPvmDpT_, symObjAddr: 0x32B8, symBinAddr: 0x100003938, symSize: 0x28 }
  - { offsetInCU: 0xB182, offset: 0xB182, size: 0x8, addend: 0x0, symName: __ZNSt3__124__libcpp_operator_deleteB8ne180100IJPvEEEvDpT_, symObjAddr: 0x32E0, symBinAddr: 0x100003960, symSize: 0x24 }
  - { offsetInCU: 0xB1B7, offset: 0xB1B7, size: 0x8, addend: 0x0, symName: __ZNSt3__119__allocator_destroyB8ne180100INS_9allocatorINS_6vectorIhNS1_IhEEEEEENS_16reverse_iteratorIPS4_EES8_EEvRT_T0_T1_, symObjAddr: 0x341C, symBinAddr: 0x100003A9C, symSize: 0x70 }
  - { offsetInCU: 0xB21A, offset: 0xB21A, size: 0x8, addend: 0x0, symName: __ZNSt3__1neB8ne180100IPNS_6vectorIhNS_9allocatorIhEEEES5_EEbRKNS_16reverse_iteratorIT_EERKNS6_IT0_EE, symObjAddr: 0x34C0, symBinAddr: 0x100003B40, symSize: 0x48 }
  - { offsetInCU: 0xB266, offset: 0xB266, size: 0x8, addend: 0x0, symName: __ZNSt3__112__to_addressB8ne180100INS_16reverse_iteratorIPNS_6vectorIhNS_9allocatorIhEEEEEEvEEu7__decayIDTclsr19__to_address_helperIT_EE6__callclsr3stdE7declvalIRKS8_EEEEESA_, symObjAddr: 0x3534, symBinAddr: 0x100003BB4, symSize: 0x24 }
  - { offsetInCU: 0xB318, offset: 0xB318, size: 0x8, addend: 0x0, symName: __ZNSt3__119__allocator_destroyB8ne180100INS_9allocatorINS_6vectorINS2_IhNS1_IhEEEENS1_IS4_EEEEEENS_16reverse_iteratorIPS6_EESA_EEvRT_T0_T1_, symObjAddr: 0x3AE0, symBinAddr: 0x100004160, symSize: 0x70 }
  - { offsetInCU: 0xB37B, offset: 0xB37B, size: 0x8, addend: 0x0, symName: __ZNSt3__1neB8ne180100IPNS_6vectorINS1_IhNS_9allocatorIhEEEENS2_IS4_EEEES7_EEbRKNS_16reverse_iteratorIT_EERKNS8_IT0_EE, symObjAddr: 0x3B84, symBinAddr: 0x100004204, symSize: 0x48 }
  - { offsetInCU: 0xB3C7, offset: 0xB3C7, size: 0x8, addend: 0x0, symName: __ZNSt3__112__to_addressB8ne180100INS_16reverse_iteratorIPNS_6vectorINS2_IhNS_9allocatorIhEEEENS3_IS5_EEEEEEvEEu7__decayIDTclsr19__to_address_helperIT_EE6__callclsr3stdE7declvalIRKSA_EEEEESC_, symObjAddr: 0x3BF8, symBinAddr: 0x100004278, symSize: 0x24 }
  - { offsetInCU: 0xB479, offset: 0xB479, size: 0x8, addend: 0x0, symName: __ZNSt3__123__dispatch_copy_or_moveB8ne180100INS_17_ClassicAlgPolicyENS_11__copy_loopIS1_EENS_14__copy_trivialEPNS_6vectorINS5_IhNS_9allocatorIhEEEENS6_IS8_EEEESB_SB_EENS_4pairIT2_T4_EESD_T3_SE_, symObjAddr: 0x3E68, symBinAddr: 0x1000044E8, symSize: 0x44 }
  - { offsetInCU: 0xB4F7, offset: 0xB4F7, size: 0x8, addend: 0x0, symName: __ZNSt3__121__unwrap_and_dispatchB8ne180100INS_10__overloadINS_11__copy_loopINS_17_ClassicAlgPolicyEEENS_14__copy_trivialEEEPNS_6vectorINS7_IhNS_9allocatorIhEEEENS8_ISA_EEEESD_SD_Li0EEENS_4pairIT0_T2_EESF_T1_SG_, symObjAddr: 0x3EAC, symBinAddr: 0x10000452C, symSize: 0xB4 }
  - { offsetInCU: 0xB61F, offset: 0xB61F, size: 0x8, addend: 0x0, symName: __ZNSt3__114__rewrap_rangeB8ne180100IPNS_6vectorINS1_IhNS_9allocatorIhEEEENS2_IS4_EEEES7_EET_S8_T0_, symObjAddr: 0x3FE8, symBinAddr: 0x100004668, symSize: 0x2C }
  - { offsetInCU: 0xB66B, offset: 0xB66B, size: 0x8, addend: 0x0, symName: __ZNSt3__119__allocate_at_leastB8ne180100INS_9allocatorINS_6vectorINS2_IhNS1_IhEEEENS1_IS4_EEEEEEEENS_19__allocation_resultINS_16allocator_traitsIT_E7pointerEEERSA_m, symObjAddr: 0x4284, symBinAddr: 0x100004904, symSize: 0x40 }
  - { offsetInCU: 0xB6AE, offset: 0xB6AE, size: 0x8, addend: 0x0, symName: __ZNSt3__13maxB8ne180100ImEERKT_S3_S3_, symObjAddr: 0x43D0, symBinAddr: 0x100004A50, symSize: 0x2C }
  - { offsetInCU: 0xB6F1, offset: 0xB6F1, size: 0x8, addend: 0x0, symName: __ZNSt3__13maxB8ne180100ImNS_6__lessIvvEEEERKT_S5_S5_T0_, symObjAddr: 0x43FC, symBinAddr: 0x100004A7C, symSize: 0x54 }
  - { offsetInCU: 0xB74B, offset: 0xB74B, size: 0x8, addend: 0x0, symName: __ZNSt3__110__distanceB8ne180100IPNS_6vectorINS1_IhNS_9allocatorIhEEEENS2_IS4_EEEEEENS_15iterator_traitsIT_E15difference_typeES9_S9_NS_26random_access_iterator_tagE, symObjAddr: 0x4450, symBinAddr: 0x100004AD0, symSize: 0x28 }
  - { offsetInCU: 0xB798, offset: 0xB798, size: 0x8, addend: 0x0, symName: __ZNSt3__18distanceB8ne180100IPNS_6vectorIhNS_9allocatorIhEEEEEENS_15iterator_traitsIT_E15difference_typeES7_S7_, symObjAddr: 0x4678, symBinAddr: 0x100004CF8, symSize: 0x2C }
  - { offsetInCU: 0xB7DB, offset: 0xB7DB, size: 0x8, addend: 0x0, symName: __ZNSt3__14nextB8ne180100IPNS_6vectorIhNS_9allocatorIhEEEELi0EEET_S6_NS_15iterator_traitsIS6_E15difference_typeE, symObjAddr: 0x46A4, symBinAddr: 0x100004D24, symSize: 0x34 }
  - { offsetInCU: 0xB824, offset: 0xB824, size: 0x8, addend: 0x0, symName: __ZNSt3__14copyB8ne180100IPNS_6vectorIhNS_9allocatorIhEEEES5_EET0_T_S7_S6_, symObjAddr: 0x46D8, symBinAddr: 0x100004D58, symSize: 0x40 }
  - { offsetInCU: 0xB87E, offset: 0xB87E, size: 0x8, addend: 0x0, symName: __ZNSt3__16__copyB8ne180100INS_17_ClassicAlgPolicyEPNS_6vectorIhNS_9allocatorIhEEEES6_S6_EENS_4pairIT0_T2_EES8_T1_S9_, symObjAddr: 0x4718, symBinAddr: 0x100004D98, symSize: 0x44 }
  - { offsetInCU: 0xB8EA, offset: 0xB8EA, size: 0x8, addend: 0x0, symName: __ZNSt3__19__advanceB8ne180100IPNS_6vectorIhNS_9allocatorIhEEEEEEvRT_NS_15iterator_traitsIS6_E15difference_typeENS_26random_access_iterator_tagE, symObjAddr: 0x4928, symBinAddr: 0x100004FA8, symSize: 0x30 }
  - { offsetInCU: 0xB933, offset: 0xB933, size: 0x8, addend: 0x0, symName: __ZNSt3__123__dispatch_copy_or_moveB8ne180100INS_17_ClassicAlgPolicyENS_11__copy_loopIS1_EENS_14__copy_trivialEPNS_6vectorIhNS_9allocatorIhEEEES9_S9_EENS_4pairIT2_T4_EESB_T3_SC_, symObjAddr: 0x4958, symBinAddr: 0x100004FD8, symSize: 0x44 }
  - { offsetInCU: 0xB9B1, offset: 0xB9B1, size: 0x8, addend: 0x0, symName: __ZNSt3__121__unwrap_and_dispatchB8ne180100INS_10__overloadINS_11__copy_loopINS_17_ClassicAlgPolicyEEENS_14__copy_trivialEEEPNS_6vectorIhNS_9allocatorIhEEEESB_SB_Li0EEENS_4pairIT0_T2_EESD_T1_SE_, symObjAddr: 0x499C, symBinAddr: 0x10000501C, symSize: 0xB4 }
  - { offsetInCU: 0xBA3F, offset: 0xBA3F, size: 0x8, addend: 0x0, symName: __ZNSt3__114__rewrap_rangeB8ne180100IPNS_6vectorIhNS_9allocatorIhEEEES5_EET_S6_T0_, symObjAddr: 0x4AD8, symBinAddr: 0x100005158, symSize: 0x2C }
  - { offsetInCU: 0xBA8B, offset: 0xBA8B, size: 0x8, addend: 0x0, symName: __ZNSt3__18distanceB8ne180100IPhEENS_15iterator_traitsIT_E15difference_typeES3_S3_, symObjAddr: 0x4D6C, symBinAddr: 0x1000053EC, symSize: 0x2C }
  - { offsetInCU: 0xBACE, offset: 0xBACE, size: 0x8, addend: 0x0, symName: __ZNSt3__14nextB8ne180100IPhLi0EEET_S2_NS_15iterator_traitsIS2_E15difference_typeE, symObjAddr: 0x4D98, symBinAddr: 0x100005418, symSize: 0x34 }
  - { offsetInCU: 0xBB17, offset: 0xBB17, size: 0x8, addend: 0x0, symName: __ZNSt3__19__advanceB8ne180100IPhEEvRT_NS_15iterator_traitsIS2_E15difference_typeENS_26random_access_iterator_tagE, symObjAddr: 0x4F98, symBinAddr: 0x100005618, symSize: 0x28 }
  - { offsetInCU: 0xBB60, offset: 0xBB60, size: 0x8, addend: 0x0, symName: __ZNSt3__110__distanceB8ne180100IPhEENS_15iterator_traitsIT_E15difference_typeES3_S3_NS_26random_access_iterator_tagE, symObjAddr: 0x5018, symBinAddr: 0x100005698, symSize: 0x20 }
  - { offsetInCU: 0xBBAD, offset: 0xBBAD, size: 0x8, addend: 0x0, symName: __ZNSt3__110__distanceB8ne180100IPNS_6vectorIhNS_9allocatorIhEEEEEENS_15iterator_traitsIT_E15difference_typeES7_S7_NS_26random_access_iterator_tagE, symObjAddr: 0x5090, symBinAddr: 0x100005710, symSize: 0x28 }
  - { offsetInCU: 0xBBFA, offset: 0xBBFA, size: 0x8, addend: 0x0, symName: __ZNSt3__18distanceB8ne180100IPtEENS_15iterator_traitsIT_E15difference_typeES3_S3_, symObjAddr: 0x52B8, symBinAddr: 0x100005938, symSize: 0x2C }
  - { offsetInCU: 0xBC3D, offset: 0xBC3D, size: 0x8, addend: 0x0, symName: __ZNSt3__14nextB8ne180100IPtLi0EEET_S2_NS_15iterator_traitsIS2_E15difference_typeE, symObjAddr: 0x534C, symBinAddr: 0x1000059CC, symSize: 0x34 }
  - { offsetInCU: 0xBC86, offset: 0xBC86, size: 0x8, addend: 0x0, symName: __ZNSt3__14copyB8ne180100IPtS1_EET0_T_S3_S2_, symObjAddr: 0x5380, symBinAddr: 0x100005A00, symSize: 0x40 }
  - { offsetInCU: 0xBCE0, offset: 0xBCE0, size: 0x8, addend: 0x0, symName: __ZNSt3__16__copyB8ne180100INS_17_ClassicAlgPolicyEPtS2_S2_EENS_4pairIT0_T2_EES4_T1_S5_, symObjAddr: 0x544C, symBinAddr: 0x100005ACC, symSize: 0x44 }
  - { offsetInCU: 0xBD4C, offset: 0xBD4C, size: 0x8, addend: 0x0, symName: __ZNSt3__19__advanceB8ne180100IPtEEvRT_NS_15iterator_traitsIS2_E15difference_typeENS_26random_access_iterator_tagE, symObjAddr: 0x5768, symBinAddr: 0x100005DE8, symSize: 0x28 }
  - { offsetInCU: 0xBD95, offset: 0xBD95, size: 0x8, addend: 0x0, symName: __ZNSt3__130__uninitialized_allocator_copyB8ne180100INS_9allocatorItEEPtS3_S3_EET2_RT_T0_T1_S4_, symObjAddr: 0x57CC, symBinAddr: 0x100005E4C, symSize: 0x80 }
  - { offsetInCU: 0xBE32, offset: 0xBE32, size: 0x8, addend: 0x0, symName: __ZNSt3__114__unwrap_rangeB8ne180100IPtS1_EENS_4pairIT0_S3_EET_S5_, symObjAddr: 0x58E4, symBinAddr: 0x100005F64, symSize: 0x60 }
  - { offsetInCU: 0xBE7E, offset: 0xBE7E, size: 0x8, addend: 0x0, symName: __ZNSt3__135__uninitialized_allocator_copy_implB8ne180100INS_9allocatorItEEtttLPv0EEEPT2_RT_PT0_S9_S5_, symObjAddr: 0x5944, symBinAddr: 0x100005FC4, symSize: 0x38 }
  - { offsetInCU: 0xBEFF, offset: 0xBEFF, size: 0x8, addend: 0x0, symName: __ZNSt3__113__unwrap_iterB8ne180100IPtNS_18__unwrap_iter_implIS1_Lb1EEELi0EEEDTclsrT0_8__unwrapclsr3stdE7declvalIT_EEEES5_, symObjAddr: 0x597C, symBinAddr: 0x100005FFC, symSize: 0x24 }
  - { offsetInCU: 0xBF43, offset: 0xBF43, size: 0x8, addend: 0x0, symName: __ZNSt3__113__rewrap_iterB8ne180100IPtS1_NS_18__unwrap_iter_implIS1_Lb1EEEEET_S4_T0_, symObjAddr: 0x59A0, symBinAddr: 0x100006020, symSize: 0x3C }
  - { offsetInCU: 0xBF98, offset: 0xBF98, size: 0x8, addend: 0x0, symName: __ZNSt3__19make_pairB8ne180100IPtS1_EENS_4pairINS_18__unwrap_ref_decayIT_E4typeENS3_IT0_E4typeEEEOS4_OS7_, symObjAddr: 0x59DC, symBinAddr: 0x10000605C, symSize: 0x38 }
  - { offsetInCU: 0xC13D, offset: 0xC13D, size: 0x8, addend: 0x0, symName: __ZNSt3__112__to_addressB8ne180100ItEEPT_S2_, symObjAddr: 0x5AA8, symBinAddr: 0x100006128, symSize: 0x14 }
  - { offsetInCU: 0xC172, offset: 0xC172, size: 0x8, addend: 0x0, symName: __ZNSt3__123__dispatch_copy_or_moveB8ne180100INS_17_ClassicAlgPolicyENS_11__copy_loopIS1_EENS_14__copy_trivialEPtS5_S5_EENS_4pairIT2_T4_EES7_T3_S8_, symObjAddr: 0x5B64, symBinAddr: 0x1000061E4, symSize: 0x44 }
  - { offsetInCU: 0xC1F0, offset: 0xC1F0, size: 0x8, addend: 0x0, symName: __ZNSt3__121__unwrap_and_dispatchB8ne180100INS_10__overloadINS_11__copy_loopINS_17_ClassicAlgPolicyEEENS_14__copy_trivialEEEPtS7_S7_Li0EEENS_4pairIT0_T2_EES9_T1_SA_, symObjAddr: 0x5BA8, symBinAddr: 0x100006228, symSize: 0xB4 }
  - { offsetInCU: 0xC27E, offset: 0xC27E, size: 0x8, addend: 0x0, symName: __ZNSt3__114__rewrap_rangeB8ne180100IPtS1_EET_S2_T0_, symObjAddr: 0x5CA4, symBinAddr: 0x100006324, symSize: 0x2C }
  - { offsetInCU: 0xC2CA, offset: 0xC2CA, size: 0x8, addend: 0x0, symName: __ZNSt3__119__copy_trivial_implB8ne180100IttEENS_4pairIPT_PT0_EES3_S3_S5_, symObjAddr: 0x5CD0, symBinAddr: 0x100006350, symSize: 0x80 }
  - { offsetInCU: 0xC332, offset: 0xC332, size: 0x8, addend: 0x0, symName: __ZNSt3__119__constexpr_memmoveB8ne180100IttLi0EEEPT_S2_PT0_NS_15__element_countE, symObjAddr: 0x5D50, symBinAddr: 0x1000063D0, symSize: 0x64 }
  - { offsetInCU: 0xC3A0, offset: 0xC3A0, size: 0x8, addend: 0x0, symName: __ZNSt3__19make_pairB8ne180100IRPtS1_EENS_4pairINS_18__unwrap_ref_decayIT_E4typeENS4_IT0_E4typeEEEOS5_OS8_, symObjAddr: 0x5DB4, symBinAddr: 0x100006434, symSize: 0x38 }
  - { offsetInCU: 0xC3EF, offset: 0xC3EF, size: 0x8, addend: 0x0, symName: __ZNSt3__119__allocate_at_leastB8ne180100INS_9allocatorItEEEENS_19__allocation_resultINS_16allocator_traitsIT_E7pointerEEERS5_m, symObjAddr: 0x6108, symBinAddr: 0x100006788, symSize: 0x40 }
  - { offsetInCU: 0xC432, offset: 0xC432, size: 0x8, addend: 0x0, symName: __ZNSt3__110__distanceB8ne180100IPtEENS_15iterator_traitsIT_E15difference_typeES3_S3_NS_26random_access_iterator_tagE, symObjAddr: 0x624C, symBinAddr: 0x1000068CC, symSize: 0x28 }
  - { offsetInCU: 0xC47F, offset: 0xC47F, size: 0x8, addend: 0x0, symName: __ZNSt3__116__pad_and_outputB8ne180100IcNS_11char_traitsIcEEEENS_19ostreambuf_iteratorIT_T0_EES6_PKS4_S8_S8_RNS_8ios_baseES4_, symObjAddr: 0x67CC, symBinAddr: 0x100006E4C, symSize: 0x240 }
  - { offsetInCU: 0xC54E, offset: 0xC54E, size: 0x8, addend: 0x0, symName: __ZNSt3__112__to_addressB8ne180100IKcEEPT_S3_, symObjAddr: 0x6D34, symBinAddr: 0x1000073B4, symSize: 0x14 }
  - { offsetInCU: 0xC5B6, offset: 0xC5B6, size: 0x8, addend: 0x0, symName: __ZNSt3__19use_facetB8ne180100INS_5ctypeIcEEEERKT_RKNS_6localeE, symObjAddr: 0x6FB4, symBinAddr: 0x100007634, symSize: 0x2C }
  - { offsetInCU: 0xCA83, offset: 0xCA83, size: 0x8, addend: 0x0, symName: __ZNSt3__118__constexpr_strlenB8ne180100EPKc, symObjAddr: 0x704C, symBinAddr: 0x1000076CC, symSize: 0x24 }
  - { offsetInCU: 0xD02E, offset: 0xD02E, size: 0x8, addend: 0x0, symName: __ZSt28__throw_bad_array_new_lengthB8ne180100v, symObjAddr: 0x1B5C, symBinAddr: 0x1000021DC, symSize: 0x34 }
  - { offsetInCU: 0x1010A, offset: 0x1010A, size: 0x8, addend: 0x0, symName: _main, symObjAddr: 0x0, symBinAddr: 0x100000680, symSize: 0x2F4 }
  - { offsetInCU: 0x10160, offset: 0x10160, size: 0x8, addend: 0x0, symName: __ZNKSt3__110unique_ptrI16Ultimate_XO_moveNS_14default_deleteIS1_EEE3getB8ne180100Ev, symObjAddr: 0x3B8, symBinAddr: 0x100000A38, symSize: 0x28 }
  - { offsetInCU: 0x10186, offset: 0x10186, size: 0x8, addend: 0x0, symName: __ZNSt3__110unique_ptrI16Ultimate_XO_moveNS_14default_deleteIS1_EEED1B8ne180100Ev, symObjAddr: 0x3E0, symBinAddr: 0x100000A60, symSize: 0x2C }
  - { offsetInCU: 0x101B5, offset: 0x101B5, size: 0x8, addend: 0x0, symName: __ZN17Ultimate_XO_stateaSERKS_, symObjAddr: 0x40C, symBinAddr: 0x100000A8C, symSize: 0x7C }
  - { offsetInCU: 0x101E6, offset: 0x101E6, size: 0x8, addend: 0x0, symName: __ZN17Ultimate_XO_stateD1Ev, symObjAddr: 0x488, symBinAddr: 0x100000B08, symSize: 0x2C }
  - { offsetInCU: 0x1021C, offset: 0x1021C, size: 0x8, addend: 0x0, symName: __ZN10MCTS_stateaSERKS_, symObjAddr: 0x4B4, symBinAddr: 0x100000B34, symSize: 0x18 }
  - { offsetInCU: 0x1024D, offset: 0x1024D, size: 0x8, addend: 0x0, symName: __ZNSt3__16vectorINS0_INS0_IhNS_9allocatorIhEEEENS1_IS3_EEEENS1_IS5_EEEaSB8ne180100ERKS7_, symObjAddr: 0x4CC, symBinAddr: 0x100000B4C, symSize: 0x68 }
  - { offsetInCU: 0x10284, offset: 0x10284, size: 0x8, addend: 0x0, symName: __ZNSt3__16vectorINS0_IhNS_9allocatorIhEEEENS1_IS3_EEEaSB8ne180100ERKS5_, symObjAddr: 0x534, symBinAddr: 0x100000BB4, symSize: 0x68 }
  - { offsetInCU: 0x102BB, offset: 0x102BB, size: 0x8, addend: 0x0, symName: __ZNSt3__16vectorItNS_9allocatorItEEEaSB8ne180100ERKS3_, symObjAddr: 0x59C, symBinAddr: 0x100000C1C, symSize: 0x68 }
  - { offsetInCU: 0x102F2, offset: 0x102F2, size: 0x8, addend: 0x0, symName: __ZNSt3__16vectorINS0_INS0_IhNS_9allocatorIhEEEENS1_IS3_EEEENS1_IS5_EEE19__copy_assign_allocB8ne180100ERKS7_, symObjAddr: 0x604, symBinAddr: 0x100000C84, symSize: 0x2C }
  - { offsetInCU: 0x10327, offset: 0x10327, size: 0x8, addend: 0x0, symName: __ZNSt3__16vectorINS0_INS0_IhNS_9allocatorIhEEEENS1_IS3_EEEENS1_IS5_EEE6assignIPS5_Li0EEEvT_SA_, symObjAddr: 0x630, symBinAddr: 0x100000CB0, symSize: 0x5C }
  - { offsetInCU: 0x1037C, offset: 0x1037C, size: 0x8, addend: 0x0, symName: __ZNSt3__16vectorINS0_INS0_IhNS_9allocatorIhEEEENS1_IS3_EEEENS1_IS5_EEE19__copy_assign_allocB8ne180100ERKS7_NS_17integral_constantIbLb0EEE, symObjAddr: 0x68C, symBinAddr: 0x100000D0C, symSize: 0x14 }
  - { offsetInCU: 0x103B8, offset: 0x103B8, size: 0x8, addend: 0x0, symName: __ZNSt3__16vectorINS0_INS0_IhNS_9allocatorIhEEEENS1_IS3_EEEENS1_IS5_EEE18__assign_with_sizeB8ne180100IPS5_S9_EEvT_T0_l, symObjAddr: 0x6A0, symBinAddr: 0x100000D20, symSize: 0x164 }
  - { offsetInCU: 0x1046A, offset: 0x1046A, size: 0x8, addend: 0x0, symName: __ZNKSt3__16vectorINS0_INS0_IhNS_9allocatorIhEEEENS1_IS3_EEEENS1_IS5_EEE8capacityB8ne180100Ev, symObjAddr: 0x830, symBinAddr: 0x100000EB0, symSize: 0x40 }
  - { offsetInCU: 0x10490, offset: 0x10490, size: 0x8, addend: 0x0, symName: __ZNKSt3__16vectorINS0_INS0_IhNS_9allocatorIhEEEENS1_IS3_EEEENS1_IS5_EEE4sizeB8ne180100Ev, symObjAddr: 0x870, symBinAddr: 0x100000EF0, symSize: 0x28 }
  - { offsetInCU: 0x104B6, offset: 0x104B6, size: 0x8, addend: 0x0, symName: __ZNSt3__16vectorINS0_INS0_IhNS_9allocatorIhEEEENS1_IS3_EEEENS1_IS5_EEE18__construct_at_endIPS5_S9_EEvT_T0_m, symObjAddr: 0x90C, symBinAddr: 0x100000F8C, symSize: 0x8C }
  - { offsetInCU: 0x1052C, offset: 0x1052C, size: 0x8, addend: 0x0, symName: __ZNSt3__16vectorINS0_INS0_IhNS_9allocatorIhEEEENS1_IS3_EEEENS1_IS5_EEE17__destruct_at_endB8ne180100EPS5_, symObjAddr: 0x9DC, symBinAddr: 0x10000105C, symSize: 0x4C }
  - { offsetInCU: 0x10570, offset: 0x10570, size: 0x8, addend: 0x0, symName: __ZNSt3__16vectorINS0_INS0_IhNS_9allocatorIhEEEENS1_IS3_EEEENS1_IS5_EEE13__vdeallocateEv, symObjAddr: 0xA28, symBinAddr: 0x1000010A8, symSize: 0x94 }
  - { offsetInCU: 0x10598, offset: 0x10598, size: 0x8, addend: 0x0, symName: __ZNSt3__16vectorINS0_INS0_IhNS_9allocatorIhEEEENS1_IS3_EEEENS1_IS5_EEE11__vallocateB8ne180100Em, symObjAddr: 0xABC, symBinAddr: 0x10000113C, symSize: 0xB4 }
  - { offsetInCU: 0x105DC, offset: 0x105DC, size: 0x8, addend: 0x0, symName: __ZNKSt3__16vectorINS0_INS0_IhNS_9allocatorIhEEEENS1_IS3_EEEENS1_IS5_EEE11__recommendB8ne180100Em, symObjAddr: 0xB70, symBinAddr: 0x1000011F0, symSize: 0xB4 }
  - { offsetInCU: 0x10631, offset: 0x10631, size: 0x8, addend: 0x0, symName: __ZNKSt3__16vectorINS0_INS0_IhNS_9allocatorIhEEEENS1_IS3_EEEENS1_IS5_EEE9__end_capB8ne180100Ev, symObjAddr: 0xC24, symBinAddr: 0x1000012A4, symSize: 0x28 }
  - { offsetInCU: 0x10657, offset: 0x10657, size: 0x8, addend: 0x0, symName: __ZNKSt3__117__compressed_pairIPNS_6vectorINS1_IhNS_9allocatorIhEEEENS2_IS4_EEEENS2_IS6_EEE5firstB8ne180100Ev, symObjAddr: 0xC4C, symBinAddr: 0x1000012CC, symSize: 0x24 }
  - { offsetInCU: 0x1067D, offset: 0x1067D, size: 0x8, addend: 0x0, symName: __ZNKSt3__122__compressed_pair_elemIPNS_6vectorINS1_IhNS_9allocatorIhEEEENS2_IS4_EEEELi0ELb0EE5__getB8ne180100Ev, symObjAddr: 0xC70, symBinAddr: 0x1000012F0, symSize: 0x14 }
  - { offsetInCU: 0x106BC, offset: 0x106BC, size: 0x8, addend: 0x0, symName: __ZNSt3__16vectorINS0_INS0_IhNS_9allocatorIhEEEENS1_IS3_EEEENS1_IS5_EEE21_ConstructTransactionC1B8ne180100ERS7_m, symObjAddr: 0xD00, symBinAddr: 0x100001380, symSize: 0x3C }
  - { offsetInCU: 0x10704, offset: 0x10704, size: 0x8, addend: 0x0, symName: __ZNSt3__16vectorINS0_INS0_IhNS_9allocatorIhEEEENS1_IS3_EEEENS1_IS5_EEE7__allocB8ne180100Ev, symObjAddr: 0xDBC, symBinAddr: 0x10000143C, symSize: 0x28 }
  - { offsetInCU: 0x1072A, offset: 0x1072A, size: 0x8, addend: 0x0, symName: __ZNSt3__16vectorINS0_INS0_IhNS_9allocatorIhEEEENS1_IS3_EEEENS1_IS5_EEE21_ConstructTransactionD1B8ne180100Ev, symObjAddr: 0xDE4, symBinAddr: 0x100001464, symSize: 0x2C }
  - { offsetInCU: 0x10754, offset: 0x10754, size: 0x8, addend: 0x0, symName: __ZNSt3__16vectorINS0_INS0_IhNS_9allocatorIhEEEENS1_IS3_EEEENS1_IS5_EEE21_ConstructTransactionC2B8ne180100ERS7_m, symObjAddr: 0xE10, symBinAddr: 0x100001490, symSize: 0x4C }
  - { offsetInCU: 0x107BA, offset: 0x107BA, size: 0x8, addend: 0x0, symName: __ZNSt3__14pairIPNS_6vectorINS1_IhNS_9allocatorIhEEEENS2_IS4_EEEES7_EC1B8ne180100IS7_S7_Li0EEEOT_OT0_, symObjAddr: 0x1048, symBinAddr: 0x1000016C8, symSize: 0x3C }
  - { offsetInCU: 0x10818, offset: 0x10818, size: 0x8, addend: 0x0, symName: __ZNSt3__14pairIPNS_6vectorINS1_IhNS_9allocatorIhEEEENS2_IS4_EEEES7_EC2B8ne180100IS7_S7_Li0EEEOT_OT0_, symObjAddr: 0x1084, symBinAddr: 0x100001704, symSize: 0x34 }
  - { offsetInCU: 0x10876, offset: 0x10876, size: 0x8, addend: 0x0, symName: __ZNSt3__129_AllocatorDestroyRangeReverseINS_9allocatorINS_6vectorINS2_IhNS1_IhEEEENS1_IS4_EEEEEEPS6_EC1B8ne180100ERS7_RS8_SB_, symObjAddr: 0x1104, symBinAddr: 0x100001784, symSize: 0x44 }
  - { offsetInCU: 0x108CD, offset: 0x108CD, size: 0x8, addend: 0x0, symName: __ZNSt3__116allocator_traitsINS_9allocatorINS_6vectorINS2_IhNS1_IhEEEENS1_IS4_EEEEEEE9constructB8ne180100IS6_JRS6_EvEEvRS7_PT_DpOT0_, symObjAddr: 0x1148, symBinAddr: 0x1000017C8, symSize: 0x34 }
  - { offsetInCU: 0x10924, offset: 0x10924, size: 0x8, addend: 0x0, symName: __ZNSt3__128__exception_guard_exceptionsINS_29_AllocatorDestroyRangeReverseINS_9allocatorINS_6vectorINS3_IhNS2_IhEEEENS2_IS5_EEEEEEPS7_EEE10__completeB8ne180100Ev, symObjAddr: 0x1190, symBinAddr: 0x100001810, symSize: 0x1C }
  - { offsetInCU: 0x1094A, offset: 0x1094A, size: 0x8, addend: 0x0, symName: __ZNSt3__128__exception_guard_exceptionsINS_29_AllocatorDestroyRangeReverseINS_9allocatorINS_6vectorINS3_IhNS2_IhEEEENS2_IS5_EEEEEEPS7_EEED1B8ne180100Ev, symObjAddr: 0x11AC, symBinAddr: 0x10000182C, symSize: 0x2C }
  - { offsetInCU: 0x10974, offset: 0x10974, size: 0x8, addend: 0x0, symName: __ZNSt3__128__exception_guard_exceptionsINS_29_AllocatorDestroyRangeReverseINS_9allocatorINS_6vectorINS3_IhNS2_IhEEEENS2_IS5_EEEEEEPS7_EEEC1B8ne180100ESA_, symObjAddr: 0x11D8, symBinAddr: 0x100001858, symSize: 0x34 }
  - { offsetInCU: 0x109AD, offset: 0x109AD, size: 0x8, addend: 0x0, symName: __ZNSt3__128__exception_guard_exceptionsINS_29_AllocatorDestroyRangeReverseINS_9allocatorINS_6vectorINS3_IhNS2_IhEEEENS2_IS5_EEEEEEPS7_EEEC2B8ne180100ESA_, symObjAddr: 0x120C, symBinAddr: 0x10000188C, symSize: 0x30 }
  - { offsetInCU: 0x109E6, offset: 0x109E6, size: 0x8, addend: 0x0, symName: __ZNSt3__129_AllocatorDestroyRangeReverseINS_9allocatorINS_6vectorINS2_IhNS1_IhEEEENS1_IS4_EEEEEEPS6_EC2B8ne180100ERS7_RS8_SB_, symObjAddr: 0x123C, symBinAddr: 0x1000018BC, symSize: 0x38 }
  - { offsetInCU: 0x10A3D, offset: 0x10A3D, size: 0x8, addend: 0x0, symName: __ZNSt3__19allocatorINS_6vectorINS1_IhNS0_IhEEEENS0_IS3_EEEEE9constructB8ne180100IS5_JRS5_EEEvPT_DpOT0_, symObjAddr: 0x1274, symBinAddr: 0x1000018F4, symSize: 0x30 }
  - { offsetInCU: 0x10A93, offset: 0x10A93, size: 0x8, addend: 0x0, symName: __ZNSt3__16vectorINS0_IhNS_9allocatorIhEEEENS1_IS3_EEEC1ERKS5_, symObjAddr: 0x12A4, symBinAddr: 0x100001924, symSize: 0x34 }
  - { offsetInCU: 0x10ACE, offset: 0x10ACE, size: 0x8, addend: 0x0, symName: __ZNSt3__16vectorINS0_IhNS_9allocatorIhEEEENS1_IS3_EEEC2ERKS5_, symObjAddr: 0x12D8, symBinAddr: 0x100001958, symSize: 0x94 }
  - { offsetInCU: 0x10B13, offset: 0x10B13, size: 0x8, addend: 0x0, symName: __ZNSt3__116allocator_traitsINS_9allocatorINS_6vectorIhNS1_IhEEEEEEE37select_on_container_copy_constructionB8ne180100IS5_vvEES5_RKS5_, symObjAddr: 0x136C, symBinAddr: 0x1000019EC, symSize: 0x10 }
  - { offsetInCU: 0x10B42, offset: 0x10B42, size: 0x8, addend: 0x0, symName: __ZNKSt3__16vectorINS0_IhNS_9allocatorIhEEEENS1_IS3_EEE7__allocB8ne180100Ev, symObjAddr: 0x137C, symBinAddr: 0x1000019FC, symSize: 0x28 }
  - { offsetInCU: 0x10B72, offset: 0x10B72, size: 0x8, addend: 0x0, symName: __ZNSt3__117__compressed_pairIPNS_6vectorIhNS_9allocatorIhEEEENS2_IS4_EEEC1B8ne180100IDnS6_EEOT_OT0_, symObjAddr: 0x13A4, symBinAddr: 0x100001A24, symSize: 0x3C }
  - { offsetInCU: 0x10BCA, offset: 0x10BCA, size: 0x8, addend: 0x0, symName: __ZNSt3__16vectorINS0_IhNS_9allocatorIhEEEENS1_IS3_EEE16__init_with_sizeB8ne180100IPS3_S7_EEvT_T0_m, symObjAddr: 0x13E0, symBinAddr: 0x100001A60, symSize: 0xB8 }
  - { offsetInCU: 0x10C3E, offset: 0x10C3E, size: 0x8, addend: 0x0, symName: __ZNKSt3__16vectorINS0_IhNS_9allocatorIhEEEENS1_IS3_EEE4sizeB8ne180100Ev, symObjAddr: 0x1498, symBinAddr: 0x100001B18, symSize: 0x28 }
  - { offsetInCU: 0x10C64, offset: 0x10C64, size: 0x8, addend: 0x0, symName: __ZNKSt3__117__compressed_pairIPNS_6vectorIhNS_9allocatorIhEEEENS2_IS4_EEE6secondB8ne180100Ev, symObjAddr: 0x14C0, symBinAddr: 0x100001B40, symSize: 0x24 }
  - { offsetInCU: 0x10C8A, offset: 0x10C8A, size: 0x8, addend: 0x0, symName: __ZNKSt3__122__compressed_pair_elemINS_9allocatorINS_6vectorIhNS1_IhEEEEEELi1ELb1EE5__getB8ne180100Ev, symObjAddr: 0x14E4, symBinAddr: 0x100001B64, symSize: 0x14 }
  - { offsetInCU: 0x10CB0, offset: 0x10CB0, size: 0x8, addend: 0x0, symName: __ZNSt3__117__compressed_pairIPNS_6vectorIhNS_9allocatorIhEEEENS2_IS4_EEEC2B8ne180100IDnS6_EEOT_OT0_, symObjAddr: 0x14F8, symBinAddr: 0x100001B78, symSize: 0x44 }
  - { offsetInCU: 0x10D08, offset: 0x10D08, size: 0x8, addend: 0x0, symName: __ZNSt3__122__compressed_pair_elemIPNS_6vectorIhNS_9allocatorIhEEEELi0ELb0EEC2B8ne180100IDnvEEOT_, symObjAddr: 0x153C, symBinAddr: 0x100001BBC, symSize: 0x1C }
  - { offsetInCU: 0x10D4A, offset: 0x10D4A, size: 0x8, addend: 0x0, symName: __ZNSt3__122__compressed_pair_elemINS_9allocatorINS_6vectorIhNS1_IhEEEEEELi1ELb1EEC2B8ne180100IS5_vEEOT_, symObjAddr: 0x1558, symBinAddr: 0x100001BD8, symSize: 0x18 }
  - { offsetInCU: 0x10D8C, offset: 0x10D8C, size: 0x8, addend: 0x0, symName: __ZNSt3__16vectorINS0_IhNS_9allocatorIhEEEENS1_IS3_EEE16__destroy_vectorC1B8ne180100ERS5_, symObjAddr: 0x15B0, symBinAddr: 0x100001C30, symSize: 0x34 }
  - { offsetInCU: 0x10DC5, offset: 0x10DC5, size: 0x8, addend: 0x0, symName: __ZNSt3__16vectorINS0_IhNS_9allocatorIhEEEENS1_IS3_EEE11__vallocateB8ne180100Em, symObjAddr: 0x15E4, symBinAddr: 0x100001C64, symSize: 0xB4 }
  - { offsetInCU: 0x10E09, offset: 0x10E09, size: 0x8, addend: 0x0, symName: __ZNSt3__16vectorINS0_IhNS_9allocatorIhEEEENS1_IS3_EEE18__construct_at_endIPS3_S7_EEvT_T0_m, symObjAddr: 0x1698, symBinAddr: 0x100001D18, symSize: 0x8C }
  - { offsetInCU: 0x10E7F, offset: 0x10E7F, size: 0x8, addend: 0x0, symName: __ZNSt3__128__exception_guard_exceptionsINS_6vectorINS1_IhNS_9allocatorIhEEEENS2_IS4_EEE16__destroy_vectorEE10__completeB8ne180100Ev, symObjAddr: 0x1724, symBinAddr: 0x100001DA4, symSize: 0x1C }
  - { offsetInCU: 0x10EA5, offset: 0x10EA5, size: 0x8, addend: 0x0, symName: __ZNSt3__128__exception_guard_exceptionsINS_6vectorINS1_IhNS_9allocatorIhEEEENS2_IS4_EEE16__destroy_vectorEED1B8ne180100Ev, symObjAddr: 0x1740, symBinAddr: 0x100001DC0, symSize: 0x2C }
  - { offsetInCU: 0x10ECF, offset: 0x10ECF, size: 0x8, addend: 0x0, symName: __ZNSt3__128__exception_guard_exceptionsINS_6vectorINS1_IhNS_9allocatorIhEEEENS2_IS4_EEE16__destroy_vectorEEC1B8ne180100ES7_, symObjAddr: 0x176C, symBinAddr: 0x100001DEC, symSize: 0x34 }
  - { offsetInCU: 0x10F07, offset: 0x10F07, size: 0x8, addend: 0x0, symName: __ZNSt3__128__exception_guard_exceptionsINS_6vectorINS1_IhNS_9allocatorIhEEEENS2_IS4_EEE16__destroy_vectorEEC2B8ne180100ES7_, symObjAddr: 0x17A0, symBinAddr: 0x100001E20, symSize: 0x24 }
  - { offsetInCU: 0x10F3F, offset: 0x10F3F, size: 0x8, addend: 0x0, symName: __ZNSt3__16vectorINS0_IhNS_9allocatorIhEEEENS1_IS3_EEE16__destroy_vectorC2B8ne180100ERS5_, symObjAddr: 0x17C4, symBinAddr: 0x100001E44, symSize: 0x20 }
  - { offsetInCU: 0x10F78, offset: 0x10F78, size: 0x8, addend: 0x0, symName: __ZNKSt3__16vectorINS0_IhNS_9allocatorIhEEEENS1_IS3_EEE8max_sizeEv, symObjAddr: 0x17E4, symBinAddr: 0x100001E64, symSize: 0x60 }
  - { offsetInCU: 0x10FA0, offset: 0x10FA0, size: 0x8, addend: 0x0, symName: __ZNKSt3__16vectorINS0_IhNS_9allocatorIhEEEENS1_IS3_EEE20__throw_length_errorB8ne180100Ev, symObjAddr: 0x1844, symBinAddr: 0x100001EC4, symSize: 0x1C }
  - { offsetInCU: 0x10FC6, offset: 0x10FC6, size: 0x8, addend: 0x0, symName: __ZNSt3__16vectorINS0_IhNS_9allocatorIhEEEENS1_IS3_EEE7__allocB8ne180100Ev, symObjAddr: 0x18A0, symBinAddr: 0x100001F20, symSize: 0x28 }
  - { offsetInCU: 0x10FEC, offset: 0x10FEC, size: 0x8, addend: 0x0, symName: __ZNSt3__16vectorINS0_IhNS_9allocatorIhEEEENS1_IS3_EEE9__end_capB8ne180100Ev, symObjAddr: 0x18C8, symBinAddr: 0x100001F48, symSize: 0x28 }
  - { offsetInCU: 0x11012, offset: 0x11012, size: 0x8, addend: 0x0, symName: __ZNKSt3__16vectorINS0_IhNS_9allocatorIhEEEENS1_IS3_EEE14__annotate_newB8ne180100Em, symObjAddr: 0x18F0, symBinAddr: 0x100001F70, symSize: 0x14 }
  - { offsetInCU: 0x11047, offset: 0x11047, size: 0x8, addend: 0x0, symName: __ZNSt3__116allocator_traitsINS_9allocatorINS_6vectorIhNS1_IhEEEEEEE8max_sizeB8ne180100IS5_vEEmRKS5_, symObjAddr: 0x1930, symBinAddr: 0x100001FB0, symSize: 0x24 }
  - { offsetInCU: 0x11075, offset: 0x11075, size: 0x8, addend: 0x0, symName: __ZNSt3__114numeric_limitsIlE3maxB8ne180100Ev, symObjAddr: 0x1954, symBinAddr: 0x100001FD4, symSize: 0x14 }
  - { offsetInCU: 0x1109D, offset: 0x1109D, size: 0x8, addend: 0x0, symName: __ZNKSt3__16__lessIvvEclB8ne180100ImmEEbRKT_RKT0_, symObjAddr: 0x19C8, symBinAddr: 0x100002048, symSize: 0x34 }
  - { offsetInCU: 0x110F1, offset: 0x110F1, size: 0x8, addend: 0x0, symName: __ZNKSt3__19allocatorINS_6vectorIhNS0_IhEEEEE8max_sizeB8ne180100Ev, symObjAddr: 0x19FC, symBinAddr: 0x10000207C, symSize: 0x18 }
  - { offsetInCU: 0x11117, offset: 0x11117, size: 0x8, addend: 0x0, symName: __ZNSt3__123__libcpp_numeric_limitsIlLb1EE3maxB8ne180100Ev, symObjAddr: 0x1A14, symBinAddr: 0x100002094, symSize: 0x8 }
  - { offsetInCU: 0x1112B, offset: 0x1112B, size: 0x8, addend: 0x0, symName: __ZNSt12length_errorC1B8ne180100EPKc, symObjAddr: 0x1A80, symBinAddr: 0x100002100, symSize: 0x34 }
  - { offsetInCU: 0x11163, offset: 0x11163, size: 0x8, addend: 0x0, symName: __ZNSt12length_errorC2B8ne180100EPKc, symObjAddr: 0x1AB4, symBinAddr: 0x100002134, symSize: 0x4C }
  - { offsetInCU: 0x1119B, offset: 0x1119B, size: 0x8, addend: 0x0, symName: __ZNSt3__19allocatorINS_6vectorIhNS0_IhEEEEE8allocateB8ne180100Em, symObjAddr: 0x1B00, symBinAddr: 0x100002180, symSize: 0x5C }
  - { offsetInCU: 0x111CF, offset: 0x111CF, size: 0x8, addend: 0x0, symName: __ZNSt3__117__compressed_pairIPNS_6vectorIhNS_9allocatorIhEEEENS2_IS4_EEE6secondB8ne180100Ev, symObjAddr: 0x1BDC, symBinAddr: 0x10000225C, symSize: 0x24 }
  - { offsetInCU: 0x111F5, offset: 0x111F5, size: 0x8, addend: 0x0, symName: __ZNSt3__122__compressed_pair_elemINS_9allocatorINS_6vectorIhNS1_IhEEEEEELi1ELb1EE5__getB8ne180100Ev, symObjAddr: 0x1C00, symBinAddr: 0x100002280, symSize: 0x14 }
  - { offsetInCU: 0x1121B, offset: 0x1121B, size: 0x8, addend: 0x0, symName: __ZNSt3__117__compressed_pairIPNS_6vectorIhNS_9allocatorIhEEEENS2_IS4_EEE5firstB8ne180100Ev, symObjAddr: 0x1C14, symBinAddr: 0x100002294, symSize: 0x24 }
  - { offsetInCU: 0x11241, offset: 0x11241, size: 0x8, addend: 0x0, symName: __ZNSt3__122__compressed_pair_elemIPNS_6vectorIhNS_9allocatorIhEEEELi0ELb0EE5__getB8ne180100Ev, symObjAddr: 0x1C38, symBinAddr: 0x1000022B8, symSize: 0x14 }
  - { offsetInCU: 0x11280, offset: 0x11280, size: 0x8, addend: 0x0, symName: __ZNSt3__16vectorINS0_IhNS_9allocatorIhEEEENS1_IS3_EEE21_ConstructTransactionC1B8ne180100ERS5_m, symObjAddr: 0x1C4C, symBinAddr: 0x1000022CC, symSize: 0x3C }
  - { offsetInCU: 0x112C8, offset: 0x112C8, size: 0x8, addend: 0x0, symName: __ZNSt3__16vectorINS0_IhNS_9allocatorIhEEEENS1_IS3_EEE21_ConstructTransactionD1B8ne180100Ev, symObjAddr: 0x1D08, symBinAddr: 0x100002388, symSize: 0x2C }
  - { offsetInCU: 0x112F2, offset: 0x112F2, size: 0x8, addend: 0x0, symName: __ZNSt3__16vectorINS0_IhNS_9allocatorIhEEEENS1_IS3_EEE21_ConstructTransactionC2B8ne180100ERS5_m, symObjAddr: 0x1D34, symBinAddr: 0x1000023B4, symSize: 0x4C }
  - { offsetInCU: 0x11358, offset: 0x11358, size: 0x8, addend: 0x0, symName: __ZNSt3__14pairIPNS_6vectorIhNS_9allocatorIhEEEES5_EC1B8ne180100IS5_S5_Li0EEEOT_OT0_, symObjAddr: 0x1F6C, symBinAddr: 0x1000025EC, symSize: 0x3C }
  - { offsetInCU: 0x113B6, offset: 0x113B6, size: 0x8, addend: 0x0, symName: __ZNSt3__14pairIPNS_6vectorIhNS_9allocatorIhEEEES5_EC2B8ne180100IS5_S5_Li0EEEOT_OT0_, symObjAddr: 0x1FA8, symBinAddr: 0x100002628, symSize: 0x34 }
  - { offsetInCU: 0x11414, offset: 0x11414, size: 0x8, addend: 0x0, symName: __ZNSt3__129_AllocatorDestroyRangeReverseINS_9allocatorINS_6vectorIhNS1_IhEEEEEEPS4_EC1B8ne180100ERS5_RS6_S9_, symObjAddr: 0x2028, symBinAddr: 0x1000026A8, symSize: 0x44 }
  - { offsetInCU: 0x1146B, offset: 0x1146B, size: 0x8, addend: 0x0, symName: __ZNSt3__116allocator_traitsINS_9allocatorINS_6vectorIhNS1_IhEEEEEEE9constructB8ne180100IS4_JRS4_EvEEvRS5_PT_DpOT0_, symObjAddr: 0x206C, symBinAddr: 0x1000026EC, symSize: 0x34 }
  - { offsetInCU: 0x114C2, offset: 0x114C2, size: 0x8, addend: 0x0, symName: __ZNSt3__128__exception_guard_exceptionsINS_29_AllocatorDestroyRangeReverseINS_9allocatorINS_6vectorIhNS2_IhEEEEEEPS5_EEE10__completeB8ne180100Ev, symObjAddr: 0x20B4, symBinAddr: 0x100002734, symSize: 0x1C }
  - { offsetInCU: 0x114E8, offset: 0x114E8, size: 0x8, addend: 0x0, symName: __ZNSt3__128__exception_guard_exceptionsINS_29_AllocatorDestroyRangeReverseINS_9allocatorINS_6vectorIhNS2_IhEEEEEEPS5_EEED1B8ne180100Ev, symObjAddr: 0x20D0, symBinAddr: 0x100002750, symSize: 0x2C }
  - { offsetInCU: 0x11512, offset: 0x11512, size: 0x8, addend: 0x0, symName: __ZNSt3__128__exception_guard_exceptionsINS_29_AllocatorDestroyRangeReverseINS_9allocatorINS_6vectorIhNS2_IhEEEEEEPS5_EEEC1B8ne180100ES8_, symObjAddr: 0x20FC, symBinAddr: 0x10000277C, symSize: 0x34 }
  - { offsetInCU: 0x1154B, offset: 0x1154B, size: 0x8, addend: 0x0, symName: __ZNSt3__128__exception_guard_exceptionsINS_29_AllocatorDestroyRangeReverseINS_9allocatorINS_6vectorIhNS2_IhEEEEEEPS5_EEEC2B8ne180100ES8_, symObjAddr: 0x2130, symBinAddr: 0x1000027B0, symSize: 0x30 }
  - { offsetInCU: 0x11584, offset: 0x11584, size: 0x8, addend: 0x0, symName: __ZNSt3__129_AllocatorDestroyRangeReverseINS_9allocatorINS_6vectorIhNS1_IhEEEEEEPS4_EC2B8ne180100ERS5_RS6_S9_, symObjAddr: 0x2160, symBinAddr: 0x1000027E0, symSize: 0x38 }
  - { offsetInCU: 0x115DB, offset: 0x115DB, size: 0x8, addend: 0x0, symName: __ZNSt3__19allocatorINS_6vectorIhNS0_IhEEEEE9constructB8ne180100IS3_JRS3_EEEvPT_DpOT0_, symObjAddr: 0x2198, symBinAddr: 0x100002818, symSize: 0x30 }
  - { offsetInCU: 0x11631, offset: 0x11631, size: 0x8, addend: 0x0, symName: __ZNSt3__16vectorIhNS_9allocatorIhEEEC1ERKS3_, symObjAddr: 0x21C8, symBinAddr: 0x100002848, symSize: 0x34 }
  - { offsetInCU: 0x1166C, offset: 0x1166C, size: 0x8, addend: 0x0, symName: __ZNSt3__16vectorIhNS_9allocatorIhEEEC2ERKS3_, symObjAddr: 0x21FC, symBinAddr: 0x10000287C, symSize: 0x94 }
  - { offsetInCU: 0x116B1, offset: 0x116B1, size: 0x8, addend: 0x0, symName: __ZNSt3__116allocator_traitsINS_9allocatorIhEEE37select_on_container_copy_constructionB8ne180100IS2_vvEES2_RKS2_, symObjAddr: 0x2290, symBinAddr: 0x100002910, symSize: 0x10 }
  - { offsetInCU: 0x116E0, offset: 0x116E0, size: 0x8, addend: 0x0, symName: __ZNKSt3__16vectorIhNS_9allocatorIhEEE7__allocB8ne180100Ev, symObjAddr: 0x22A0, symBinAddr: 0x100002920, symSize: 0x28 }
  - { offsetInCU: 0x1170B, offset: 0x1170B, size: 0x8, addend: 0x0, symName: __ZNSt3__117__compressed_pairIPhNS_9allocatorIhEEEC1B8ne180100IDnS3_EEOT_OT0_, symObjAddr: 0x22C8, symBinAddr: 0x100002948, symSize: 0x3C }
  - { offsetInCU: 0x11763, offset: 0x11763, size: 0x8, addend: 0x0, symName: __ZNSt3__16vectorIhNS_9allocatorIhEEE16__init_with_sizeB8ne180100IPhS5_EEvT_T0_m, symObjAddr: 0x2304, symBinAddr: 0x100002984, symSize: 0xB8 }
  - { offsetInCU: 0x117D7, offset: 0x117D7, size: 0x8, addend: 0x0, symName: __ZNKSt3__16vectorIhNS_9allocatorIhEEE4sizeB8ne180100Ev, symObjAddr: 0x23BC, symBinAddr: 0x100002A3C, symSize: 0x20 }
  - { offsetInCU: 0x117FD, offset: 0x117FD, size: 0x8, addend: 0x0, symName: __ZNKSt3__117__compressed_pairIPhNS_9allocatorIhEEE6secondB8ne180100Ev, symObjAddr: 0x23DC, symBinAddr: 0x100002A5C, symSize: 0x24 }
  - { offsetInCU: 0x11823, offset: 0x11823, size: 0x8, addend: 0x0, symName: __ZNKSt3__122__compressed_pair_elemINS_9allocatorIhEELi1ELb1EE5__getB8ne180100Ev, symObjAddr: 0x2400, symBinAddr: 0x100002A80, symSize: 0x14 }
  - { offsetInCU: 0x11849, offset: 0x11849, size: 0x8, addend: 0x0, symName: __ZNSt3__117__compressed_pairIPhNS_9allocatorIhEEEC2B8ne180100IDnS3_EEOT_OT0_, symObjAddr: 0x2414, symBinAddr: 0x100002A94, symSize: 0x44 }
  - { offsetInCU: 0x118A1, offset: 0x118A1, size: 0x8, addend: 0x0, symName: __ZNSt3__122__compressed_pair_elemIPhLi0ELb0EEC2B8ne180100IDnvEEOT_, symObjAddr: 0x2458, symBinAddr: 0x100002AD8, symSize: 0x1C }
  - { offsetInCU: 0x118E3, offset: 0x118E3, size: 0x8, addend: 0x0, symName: __ZNSt3__122__compressed_pair_elemINS_9allocatorIhEELi1ELb1EEC2B8ne180100IS2_vEEOT_, symObjAddr: 0x2474, symBinAddr: 0x100002AF4, symSize: 0x18 }
  - { offsetInCU: 0x11925, offset: 0x11925, size: 0x8, addend: 0x0, symName: __ZNSt3__16vectorIhNS_9allocatorIhEEE16__destroy_vectorC1B8ne180100ERS3_, symObjAddr: 0x24CC, symBinAddr: 0x100002B4C, symSize: 0x34 }
  - { offsetInCU: 0x1195E, offset: 0x1195E, size: 0x8, addend: 0x0, symName: __ZNSt3__16vectorIhNS_9allocatorIhEEE11__vallocateB8ne180100Em, symObjAddr: 0x2500, symBinAddr: 0x100002B80, symSize: 0xAC }
  - { offsetInCU: 0x119A2, offset: 0x119A2, size: 0x8, addend: 0x0, symName: __ZNSt3__16vectorIhNS_9allocatorIhEEE18__construct_at_endIPhS5_EEvT_T0_m, symObjAddr: 0x25AC, symBinAddr: 0x100002C2C, symSize: 0x8C }
  - { offsetInCU: 0x11A18, offset: 0x11A18, size: 0x8, addend: 0x0, symName: __ZNSt3__128__exception_guard_exceptionsINS_6vectorIhNS_9allocatorIhEEE16__destroy_vectorEE10__completeB8ne180100Ev, symObjAddr: 0x2638, symBinAddr: 0x100002CB8, symSize: 0x1C }
  - { offsetInCU: 0x11A3E, offset: 0x11A3E, size: 0x8, addend: 0x0, symName: __ZNSt3__128__exception_guard_exceptionsINS_6vectorIhNS_9allocatorIhEEE16__destroy_vectorEED1B8ne180100Ev, symObjAddr: 0x2654, symBinAddr: 0x100002CD4, symSize: 0x2C }
  - { offsetInCU: 0x11A68, offset: 0x11A68, size: 0x8, addend: 0x0, symName: __ZNSt3__128__exception_guard_exceptionsINS_6vectorIhNS_9allocatorIhEEE16__destroy_vectorEEC1B8ne180100ES5_, symObjAddr: 0x2680, symBinAddr: 0x100002D00, symSize: 0x34 }
  - { offsetInCU: 0x11AA0, offset: 0x11AA0, size: 0x8, addend: 0x0, symName: __ZNSt3__128__exception_guard_exceptionsINS_6vectorIhNS_9allocatorIhEEE16__destroy_vectorEEC2B8ne180100ES5_, symObjAddr: 0x26B4, symBinAddr: 0x100002D34, symSize: 0x24 }
  - { offsetInCU: 0x11AD8, offset: 0x11AD8, size: 0x8, addend: 0x0, symName: __ZNSt3__16vectorIhNS_9allocatorIhEEE16__destroy_vectorC2B8ne180100ERS3_, symObjAddr: 0x26D8, symBinAddr: 0x100002D58, symSize: 0x20 }
  - { offsetInCU: 0x11B11, offset: 0x11B11, size: 0x8, addend: 0x0, symName: __ZNKSt3__16vectorIhNS_9allocatorIhEEE8max_sizeEv, symObjAddr: 0x26F8, symBinAddr: 0x100002D78, symSize: 0x60 }
  - { offsetInCU: 0x11B39, offset: 0x11B39, size: 0x8, addend: 0x0, symName: __ZNKSt3__16vectorIhNS_9allocatorIhEEE20__throw_length_errorB8ne180100Ev, symObjAddr: 0x2758, symBinAddr: 0x100002DD8, symSize: 0x1C }
  - { offsetInCU: 0x11B5F, offset: 0x11B5F, size: 0x8, addend: 0x0, symName: __ZNSt3__16vectorIhNS_9allocatorIhEEE7__allocB8ne180100Ev, symObjAddr: 0x27B4, symBinAddr: 0x100002E34, symSize: 0x28 }
  - { offsetInCU: 0x11B85, offset: 0x11B85, size: 0x8, addend: 0x0, symName: __ZNSt3__16vectorIhNS_9allocatorIhEEE9__end_capB8ne180100Ev, symObjAddr: 0x27DC, symBinAddr: 0x100002E5C, symSize: 0x28 }
  - { offsetInCU: 0x11BAB, offset: 0x11BAB, size: 0x8, addend: 0x0, symName: __ZNKSt3__16vectorIhNS_9allocatorIhEEE14__annotate_newB8ne180100Em, symObjAddr: 0x2804, symBinAddr: 0x100002E84, symSize: 0x14 }
  - { offsetInCU: 0x11BE0, offset: 0x11BE0, size: 0x8, addend: 0x0, symName: __ZNSt3__116allocator_traitsINS_9allocatorIhEEE8max_sizeB8ne180100IS2_vEEmRKS2_, symObjAddr: 0x2818, symBinAddr: 0x100002E98, symSize: 0x24 }
  - { offsetInCU: 0x11C0E, offset: 0x11C0E, size: 0x8, addend: 0x0, symName: __ZNKSt3__19allocatorIhE8max_sizeB8ne180100Ev, symObjAddr: 0x283C, symBinAddr: 0x100002EBC, symSize: 0x14 }
  - { offsetInCU: 0x11C34, offset: 0x11C34, size: 0x8, addend: 0x0, symName: __ZNSt3__19allocatorIhE8allocateB8ne180100Em, symObjAddr: 0x2850, symBinAddr: 0x100002ED0, symSize: 0x58 }
  - { offsetInCU: 0x11C68, offset: 0x11C68, size: 0x8, addend: 0x0, symName: __ZNSt3__117__compressed_pairIPhNS_9allocatorIhEEE6secondB8ne180100Ev, symObjAddr: 0x28A8, symBinAddr: 0x100002F28, symSize: 0x24 }
  - { offsetInCU: 0x11C8E, offset: 0x11C8E, size: 0x8, addend: 0x0, symName: __ZNSt3__122__compressed_pair_elemINS_9allocatorIhEELi1ELb1EE5__getB8ne180100Ev, symObjAddr: 0x28CC, symBinAddr: 0x100002F4C, symSize: 0x14 }
  - { offsetInCU: 0x11CB4, offset: 0x11CB4, size: 0x8, addend: 0x0, symName: __ZNSt3__117__compressed_pairIPhNS_9allocatorIhEEE5firstB8ne180100Ev, symObjAddr: 0x28E0, symBinAddr: 0x100002F60, symSize: 0x24 }
  - { offsetInCU: 0x11CDA, offset: 0x11CDA, size: 0x8, addend: 0x0, symName: __ZNSt3__122__compressed_pair_elemIPhLi0ELb0EE5__getB8ne180100Ev, symObjAddr: 0x2904, symBinAddr: 0x100002F84, symSize: 0x14 }
  - { offsetInCU: 0x11D19, offset: 0x11D19, size: 0x8, addend: 0x0, symName: __ZNSt3__16vectorIhNS_9allocatorIhEEE21_ConstructTransactionC1B8ne180100ERS3_m, symObjAddr: 0x2918, symBinAddr: 0x100002F98, symSize: 0x3C }
  - { offsetInCU: 0x11D61, offset: 0x11D61, size: 0x8, addend: 0x0, symName: __ZNSt3__16vectorIhNS_9allocatorIhEEE21_ConstructTransactionD1B8ne180100Ev, symObjAddr: 0x29D4, symBinAddr: 0x100003054, symSize: 0x2C }
  - { offsetInCU: 0x11D8B, offset: 0x11D8B, size: 0x8, addend: 0x0, symName: __ZNSt3__16vectorIhNS_9allocatorIhEEE21_ConstructTransactionC2B8ne180100ERS3_m, symObjAddr: 0x2A00, symBinAddr: 0x100003080, symSize: 0x44 }
  - { offsetInCU: 0x11DF1, offset: 0x11DF1, size: 0x8, addend: 0x0, symName: __ZNSt3__14pairIPhS1_EC1B8ne180100IS1_S1_Li0EEEOT_OT0_, symObjAddr: 0x2B74, symBinAddr: 0x1000031F4, symSize: 0x3C }
  - { offsetInCU: 0x11E4F, offset: 0x11E4F, size: 0x8, addend: 0x0, symName: __ZNSt3__14pairIPhS1_EC2B8ne180100IS1_S1_Li0EEEOT_OT0_, symObjAddr: 0x2BB0, symBinAddr: 0x100003230, symSize: 0x34 }
  - { offsetInCU: 0x11EB7, offset: 0x11EB7, size: 0x8, addend: 0x0, symName: __ZNKSt3__114__copy_trivialclB8ne180100IhhLi0EEENS_4pairIPT_PT0_EES4_S4_S6_, symObjAddr: 0x2D60, symBinAddr: 0x1000033E0, symSize: 0x48 }
  - { offsetInCU: 0x11F1F, offset: 0x11F1F, size: 0x8, addend: 0x0, symName: __ZNSt3__14pairIPhS1_EC1B8ne180100IRS1_S1_Li0EEEOT_OT0_, symObjAddr: 0x2EE8, symBinAddr: 0x100003568, symSize: 0x3C }
  - { offsetInCU: 0x11F7D, offset: 0x11F7D, size: 0x8, addend: 0x0, symName: __ZNSt3__14pairIPhS1_EC2B8ne180100IRS1_S1_Li0EEEOT_OT0_, symObjAddr: 0x2F24, symBinAddr: 0x1000035A4, symSize: 0x34 }
  - { offsetInCU: 0x11FDB, offset: 0x11FDB, size: 0x8, addend: 0x0, symName: __ZNSt3__118__unwrap_iter_implIPhLb1EE8__unwrapB8ne180100ES1_, symObjAddr: 0x2F58, symBinAddr: 0x1000035D8, symSize: 0x24 }
  - { offsetInCU: 0x11FFE, offset: 0x11FFE, size: 0x8, addend: 0x0, symName: __ZNSt3__118__unwrap_iter_implIPhLb1EE8__rewrapB8ne180100ES1_S1_, symObjAddr: 0x2F90, symBinAddr: 0x100003610, symSize: 0x48 }
  - { offsetInCU: 0x1202F, offset: 0x1202F, size: 0x8, addend: 0x0, symName: __ZNSt3__16vectorIhNS_9allocatorIhEEE21_ConstructTransactionD2B8ne180100Ev, symObjAddr: 0x2FD8, symBinAddr: 0x100003658, symSize: 0x20 }
  - { offsetInCU: 0x12059, offset: 0x12059, size: 0x8, addend: 0x0, symName: __ZNSt3__128__exception_guard_exceptionsINS_6vectorIhNS_9allocatorIhEEE16__destroy_vectorEED2B8ne180100Ev, symObjAddr: 0x2FF8, symBinAddr: 0x100003678, symSize: 0x50 }
  - { offsetInCU: 0x12083, offset: 0x12083, size: 0x8, addend: 0x0, symName: __ZNSt3__16vectorIhNS_9allocatorIhEEE16__destroy_vectorclB8ne180100Ev, symObjAddr: 0x3048, symBinAddr: 0x1000036C8, symSize: 0x90 }
  - { offsetInCU: 0x120A9, offset: 0x120A9, size: 0x8, addend: 0x0, symName: __ZNSt3__16vectorIhNS_9allocatorIhEEE7__clearB8ne180100Ev, symObjAddr: 0x30D8, symBinAddr: 0x100003758, symSize: 0x28 }
  - { offsetInCU: 0x120CF, offset: 0x120CF, size: 0x8, addend: 0x0, symName: __ZNKSt3__16vectorIhNS_9allocatorIhEEE17__annotate_deleteB8ne180100Ev, symObjAddr: 0x3100, symBinAddr: 0x100003780, symSize: 0x10 }
  - { offsetInCU: 0x120F5, offset: 0x120F5, size: 0x8, addend: 0x0, symName: __ZNSt3__116allocator_traitsINS_9allocatorIhEEE10deallocateB8ne180100ERS2_Phm, symObjAddr: 0x3110, symBinAddr: 0x100003790, symSize: 0x34 }
  - { offsetInCU: 0x12137, offset: 0x12137, size: 0x8, addend: 0x0, symName: __ZNKSt3__16vectorIhNS_9allocatorIhEEE8capacityB8ne180100Ev, symObjAddr: 0x3144, symBinAddr: 0x1000037C4, symSize: 0x38 }
  - { offsetInCU: 0x1215D, offset: 0x1215D, size: 0x8, addend: 0x0, symName: __ZNSt3__16vectorIhNS_9allocatorIhEEE22__base_destruct_at_endB8ne180100EPh, symObjAddr: 0x317C, symBinAddr: 0x1000037FC, symSize: 0x8C }
  - { offsetInCU: 0x121A1, offset: 0x121A1, size: 0x8, addend: 0x0, symName: __ZNSt3__116allocator_traitsINS_9allocatorIhEEE7destroyB8ne180100IhvEEvRS2_PT_, symObjAddr: 0x3208, symBinAddr: 0x100003888, symSize: 0x2C }
  - { offsetInCU: 0x121DE, offset: 0x121DE, size: 0x8, addend: 0x0, symName: __ZNSt3__19allocatorIhE7destroyB8ne180100EPh, symObjAddr: 0x3234, symBinAddr: 0x1000038B4, symSize: 0x14 }
  - { offsetInCU: 0x12212, offset: 0x12212, size: 0x8, addend: 0x0, symName: __ZNSt3__19allocatorIhE10deallocateB8ne180100EPhm, symObjAddr: 0x3248, symBinAddr: 0x1000038C8, symSize: 0x40 }
  - { offsetInCU: 0x12254, offset: 0x12254, size: 0x8, addend: 0x0, symName: __ZNKSt3__16vectorIhNS_9allocatorIhEEE9__end_capB8ne180100Ev, symObjAddr: 0x3304, symBinAddr: 0x100003984, symSize: 0x28 }
  - { offsetInCU: 0x1227A, offset: 0x1227A, size: 0x8, addend: 0x0, symName: __ZNKSt3__117__compressed_pairIPhNS_9allocatorIhEEE5firstB8ne180100Ev, symObjAddr: 0x332C, symBinAddr: 0x1000039AC, symSize: 0x24 }
  - { offsetInCU: 0x122A0, offset: 0x122A0, size: 0x8, addend: 0x0, symName: __ZNKSt3__122__compressed_pair_elemIPhLi0ELb0EE5__getB8ne180100Ev, symObjAddr: 0x3350, symBinAddr: 0x1000039D0, symSize: 0x14 }
  - { offsetInCU: 0x122C6, offset: 0x122C6, size: 0x8, addend: 0x0, symName: __ZNSt3__128__exception_guard_exceptionsINS_29_AllocatorDestroyRangeReverseINS_9allocatorINS_6vectorIhNS2_IhEEEEEEPS5_EEED2B8ne180100Ev, symObjAddr: 0x3364, symBinAddr: 0x1000039E4, symSize: 0x50 }
  - { offsetInCU: 0x122F0, offset: 0x122F0, size: 0x8, addend: 0x0, symName: __ZNKSt3__129_AllocatorDestroyRangeReverseINS_9allocatorINS_6vectorIhNS1_IhEEEEEEPS4_EclB8ne180100Ev, symObjAddr: 0x33B4, symBinAddr: 0x100003A34, symSize: 0x68 }
  - { offsetInCU: 0x12316, offset: 0x12316, size: 0x8, addend: 0x0, symName: __ZNSt3__116reverse_iteratorIPNS_6vectorIhNS_9allocatorIhEEEEEC1B8ne180100ES5_, symObjAddr: 0x348C, symBinAddr: 0x100003B0C, symSize: 0x34 }
  - { offsetInCU: 0x1234E, offset: 0x1234E, size: 0x8, addend: 0x0, symName: __ZNSt3__116allocator_traitsINS_9allocatorINS_6vectorIhNS1_IhEEEEEEE7destroyB8ne180100IS4_vEEvRS5_PT_, symObjAddr: 0x3508, symBinAddr: 0x100003B88, symSize: 0x2C }
  - { offsetInCU: 0x1238B, offset: 0x1238B, size: 0x8, addend: 0x0, symName: __ZNSt3__116reverse_iteratorIPNS_6vectorIhNS_9allocatorIhEEEEEppB8ne180100Ev, symObjAddr: 0x3558, symBinAddr: 0x100003BD8, symSize: 0x20 }
  - { offsetInCU: 0x123B1, offset: 0x123B1, size: 0x8, addend: 0x0, symName: __ZNKSt3__116reverse_iteratorIPNS_6vectorIhNS_9allocatorIhEEEEE4baseB8ne180100Ev, symObjAddr: 0x3578, symBinAddr: 0x100003BF8, symSize: 0x18 }
  - { offsetInCU: 0x123D7, offset: 0x123D7, size: 0x8, addend: 0x0, symName: __ZNSt3__19allocatorINS_6vectorIhNS0_IhEEEEE7destroyB8ne180100EPS3_, symObjAddr: 0x3590, symBinAddr: 0x100003C10, symSize: 0x28 }
  - { offsetInCU: 0x1240B, offset: 0x1240B, size: 0x8, addend: 0x0, symName: __ZNSt3__16vectorIhNS_9allocatorIhEEED1B8ne180100Ev, symObjAddr: 0x35B8, symBinAddr: 0x100003C38, symSize: 0x2C }
  - { offsetInCU: 0x12435, offset: 0x12435, size: 0x8, addend: 0x0, symName: __ZNSt3__16vectorIhNS_9allocatorIhEEED2B8ne180100Ev, symObjAddr: 0x35E4, symBinAddr: 0x100003C64, symSize: 0x40 }
  - { offsetInCU: 0x12464, offset: 0x12464, size: 0x8, addend: 0x0, symName: __ZNSt3__119__to_address_helperINS_16reverse_iteratorIPNS_6vectorIhNS_9allocatorIhEEEEEEvE6__callB8ne180100ERKS7_, symObjAddr: 0x3624, symBinAddr: 0x100003CA4, symSize: 0x38 }
  - { offsetInCU: 0x12487, offset: 0x12487, size: 0x8, addend: 0x0, symName: __ZNKSt3__116reverse_iteratorIPNS_6vectorIhNS_9allocatorIhEEEEEptB8ne180100Ev, symObjAddr: 0x365C, symBinAddr: 0x100003CDC, symSize: 0x24 }
  - { offsetInCU: 0x124AD, offset: 0x124AD, size: 0x8, addend: 0x0, symName: __ZNKSt3__116reverse_iteratorIPNS_6vectorIhNS_9allocatorIhEEEEEdeB8ne180100Ev, symObjAddr: 0x3680, symBinAddr: 0x100003D00, symSize: 0x28 }
  - { offsetInCU: 0x124E1, offset: 0x124E1, size: 0x8, addend: 0x0, symName: __ZNSt3__116reverse_iteratorIPNS_6vectorIhNS_9allocatorIhEEEEEC2B8ne180100ES5_, symObjAddr: 0x36A8, symBinAddr: 0x100003D28, symSize: 0x28 }
  - { offsetInCU: 0x12519, offset: 0x12519, size: 0x8, addend: 0x0, symName: __ZNSt3__118__unwrap_iter_implIPNS_6vectorIhNS_9allocatorIhEEEELb1EE8__unwrapB8ne180100ES5_, symObjAddr: 0x36D0, symBinAddr: 0x100003D50, symSize: 0x24 }
  - { offsetInCU: 0x1253C, offset: 0x1253C, size: 0x8, addend: 0x0, symName: __ZNSt3__118__unwrap_iter_implIPNS_6vectorIhNS_9allocatorIhEEEELb1EE8__rewrapB8ne180100ES5_S5_, symObjAddr: 0x36F4, symBinAddr: 0x100003D74, symSize: 0x58 }
  - { offsetInCU: 0x1256D, offset: 0x1256D, size: 0x8, addend: 0x0, symName: __ZNSt3__16vectorINS0_IhNS_9allocatorIhEEEENS1_IS3_EEE21_ConstructTransactionD2B8ne180100Ev, symObjAddr: 0x374C, symBinAddr: 0x100003DCC, symSize: 0x20 }
  - { offsetInCU: 0x12597, offset: 0x12597, size: 0x8, addend: 0x0, symName: __ZNSt3__128__exception_guard_exceptionsINS_6vectorINS1_IhNS_9allocatorIhEEEENS2_IS4_EEE16__destroy_vectorEED2B8ne180100Ev, symObjAddr: 0x376C, symBinAddr: 0x100003DEC, symSize: 0x50 }
  - { offsetInCU: 0x125C1, offset: 0x125C1, size: 0x8, addend: 0x0, symName: __ZNSt3__16vectorINS0_IhNS_9allocatorIhEEEENS1_IS3_EEE16__destroy_vectorclB8ne180100Ev, symObjAddr: 0x37BC, symBinAddr: 0x100003E3C, symSize: 0x90 }
  - { offsetInCU: 0x125E7, offset: 0x125E7, size: 0x8, addend: 0x0, symName: __ZNSt3__16vectorINS0_IhNS_9allocatorIhEEEENS1_IS3_EEE7__clearB8ne180100Ev, symObjAddr: 0x384C, symBinAddr: 0x100003ECC, symSize: 0x28 }
  - { offsetInCU: 0x1260D, offset: 0x1260D, size: 0x8, addend: 0x0, symName: __ZNKSt3__16vectorINS0_IhNS_9allocatorIhEEEENS1_IS3_EEE17__annotate_deleteB8ne180100Ev, symObjAddr: 0x3874, symBinAddr: 0x100003EF4, symSize: 0x10 }
  - { offsetInCU: 0x12633, offset: 0x12633, size: 0x8, addend: 0x0, symName: __ZNSt3__116allocator_traitsINS_9allocatorINS_6vectorIhNS1_IhEEEEEEE10deallocateB8ne180100ERS5_PS4_m, symObjAddr: 0x3884, symBinAddr: 0x100003F04, symSize: 0x34 }
  - { offsetInCU: 0x12675, offset: 0x12675, size: 0x8, addend: 0x0, symName: __ZNKSt3__16vectorINS0_IhNS_9allocatorIhEEEENS1_IS3_EEE8capacityB8ne180100Ev, symObjAddr: 0x38B8, symBinAddr: 0x100003F38, symSize: 0x40 }
  - { offsetInCU: 0x1269B, offset: 0x1269B, size: 0x8, addend: 0x0, symName: __ZNSt3__16vectorINS0_IhNS_9allocatorIhEEEENS1_IS3_EEE22__base_destruct_at_endB8ne180100EPS3_, symObjAddr: 0x38F8, symBinAddr: 0x100003F78, symSize: 0x8C }
  - { offsetInCU: 0x126DF, offset: 0x126DF, size: 0x8, addend: 0x0, symName: __ZNSt3__19allocatorINS_6vectorIhNS0_IhEEEEE10deallocateB8ne180100EPS3_m, symObjAddr: 0x3984, symBinAddr: 0x100004004, symSize: 0x44 }
  - { offsetInCU: 0x12721, offset: 0x12721, size: 0x8, addend: 0x0, symName: __ZNKSt3__16vectorINS0_IhNS_9allocatorIhEEEENS1_IS3_EEE9__end_capB8ne180100Ev, symObjAddr: 0x39C8, symBinAddr: 0x100004048, symSize: 0x28 }
  - { offsetInCU: 0x12747, offset: 0x12747, size: 0x8, addend: 0x0, symName: __ZNKSt3__117__compressed_pairIPNS_6vectorIhNS_9allocatorIhEEEENS2_IS4_EEE5firstB8ne180100Ev, symObjAddr: 0x39F0, symBinAddr: 0x100004070, symSize: 0x24 }
  - { offsetInCU: 0x1276D, offset: 0x1276D, size: 0x8, addend: 0x0, symName: __ZNKSt3__122__compressed_pair_elemIPNS_6vectorIhNS_9allocatorIhEEEELi0ELb0EE5__getB8ne180100Ev, symObjAddr: 0x3A14, symBinAddr: 0x100004094, symSize: 0x14 }
  - { offsetInCU: 0x12793, offset: 0x12793, size: 0x8, addend: 0x0, symName: __ZNSt3__128__exception_guard_exceptionsINS_29_AllocatorDestroyRangeReverseINS_9allocatorINS_6vectorINS3_IhNS2_IhEEEENS2_IS5_EEEEEEPS7_EEED2B8ne180100Ev, symObjAddr: 0x3A28, symBinAddr: 0x1000040A8, symSize: 0x50 }
  - { offsetInCU: 0x127BD, offset: 0x127BD, size: 0x8, addend: 0x0, symName: __ZNKSt3__129_AllocatorDestroyRangeReverseINS_9allocatorINS_6vectorINS2_IhNS1_IhEEEENS1_IS4_EEEEEEPS6_EclB8ne180100Ev, symObjAddr: 0x3A78, symBinAddr: 0x1000040F8, symSize: 0x68 }
  - { offsetInCU: 0x127E3, offset: 0x127E3, size: 0x8, addend: 0x0, symName: __ZNSt3__116reverse_iteratorIPNS_6vectorINS1_IhNS_9allocatorIhEEEENS2_IS4_EEEEEC1B8ne180100ES7_, symObjAddr: 0x3B50, symBinAddr: 0x1000041D0, symSize: 0x34 }
  - { offsetInCU: 0x1281B, offset: 0x1281B, size: 0x8, addend: 0x0, symName: __ZNSt3__116allocator_traitsINS_9allocatorINS_6vectorINS2_IhNS1_IhEEEENS1_IS4_EEEEEEE7destroyB8ne180100IS6_vEEvRS7_PT_, symObjAddr: 0x3BCC, symBinAddr: 0x10000424C, symSize: 0x2C }
  - { offsetInCU: 0x12858, offset: 0x12858, size: 0x8, addend: 0x0, symName: __ZNSt3__116reverse_iteratorIPNS_6vectorINS1_IhNS_9allocatorIhEEEENS2_IS4_EEEEEppB8ne180100Ev, symObjAddr: 0x3C1C, symBinAddr: 0x10000429C, symSize: 0x20 }
  - { offsetInCU: 0x1287E, offset: 0x1287E, size: 0x8, addend: 0x0, symName: __ZNKSt3__116reverse_iteratorIPNS_6vectorINS1_IhNS_9allocatorIhEEEENS2_IS4_EEEEE4baseB8ne180100Ev, symObjAddr: 0x3C3C, symBinAddr: 0x1000042BC, symSize: 0x18 }
  - { offsetInCU: 0x128A4, offset: 0x128A4, size: 0x8, addend: 0x0, symName: __ZNSt3__19allocatorINS_6vectorINS1_IhNS0_IhEEEENS0_IS3_EEEEE7destroyB8ne180100EPS5_, symObjAddr: 0x3C54, symBinAddr: 0x1000042D4, symSize: 0x28 }
  - { offsetInCU: 0x128D8, offset: 0x128D8, size: 0x8, addend: 0x0, symName: __ZNSt3__16vectorINS0_IhNS_9allocatorIhEEEENS1_IS3_EEED1B8ne180100Ev, symObjAddr: 0x3C7C, symBinAddr: 0x1000042FC, symSize: 0x2C }
  - { offsetInCU: 0x12902, offset: 0x12902, size: 0x8, addend: 0x0, symName: __ZNSt3__16vectorINS0_IhNS_9allocatorIhEEEENS1_IS3_EEED2B8ne180100Ev, symObjAddr: 0x3CA8, symBinAddr: 0x100004328, symSize: 0x40 }
  - { offsetInCU: 0x12931, offset: 0x12931, size: 0x8, addend: 0x0, symName: __ZNSt3__119__to_address_helperINS_16reverse_iteratorIPNS_6vectorINS2_IhNS_9allocatorIhEEEENS3_IS5_EEEEEEvE6__callB8ne180100ERKS9_, symObjAddr: 0x3CE8, symBinAddr: 0x100004368, symSize: 0x38 }
  - { offsetInCU: 0x12954, offset: 0x12954, size: 0x8, addend: 0x0, symName: __ZNKSt3__116reverse_iteratorIPNS_6vectorINS1_IhNS_9allocatorIhEEEENS2_IS4_EEEEEptB8ne180100Ev, symObjAddr: 0x3D20, symBinAddr: 0x1000043A0, symSize: 0x24 }
  - { offsetInCU: 0x1297A, offset: 0x1297A, size: 0x8, addend: 0x0, symName: __ZNKSt3__116reverse_iteratorIPNS_6vectorINS1_IhNS_9allocatorIhEEEENS2_IS4_EEEEEdeB8ne180100Ev, symObjAddr: 0x3D44, symBinAddr: 0x1000043C4, symSize: 0x28 }
  - { offsetInCU: 0x129AE, offset: 0x129AE, size: 0x8, addend: 0x0, symName: __ZNSt3__116reverse_iteratorIPNS_6vectorINS1_IhNS_9allocatorIhEEEENS2_IS4_EEEEEC2B8ne180100ES7_, symObjAddr: 0x3D6C, symBinAddr: 0x1000043EC, symSize: 0x28 }
  - { offsetInCU: 0x129E6, offset: 0x129E6, size: 0x8, addend: 0x0, symName: __ZNSt3__118__unwrap_iter_implIPNS_6vectorINS1_IhNS_9allocatorIhEEEENS2_IS4_EEEELb1EE8__unwrapB8ne180100ES7_, symObjAddr: 0x3D94, symBinAddr: 0x100004414, symSize: 0x24 }
  - { offsetInCU: 0x12A09, offset: 0x12A09, size: 0x8, addend: 0x0, symName: __ZNSt3__118__unwrap_iter_implIPNS_6vectorINS1_IhNS_9allocatorIhEEEENS2_IS4_EEEELb1EE8__rewrapB8ne180100ES7_S7_, symObjAddr: 0x3DB8, symBinAddr: 0x100004438, symSize: 0x58 }
  - { offsetInCU: 0x12A3A, offset: 0x12A3A, size: 0x8, addend: 0x0, symName: __ZNSt3__117__compressed_pairIPNS_6vectorINS1_IhNS_9allocatorIhEEEENS2_IS4_EEEENS2_IS6_EEE6secondB8ne180100Ev, symObjAddr: 0x3E10, symBinAddr: 0x100004490, symSize: 0x24 }
  - { offsetInCU: 0x12A60, offset: 0x12A60, size: 0x8, addend: 0x0, symName: __ZNSt3__122__compressed_pair_elemINS_9allocatorINS_6vectorINS2_IhNS1_IhEEEENS1_IS4_EEEEEELi1ELb1EE5__getB8ne180100Ev, symObjAddr: 0x3E34, symBinAddr: 0x1000044B4, symSize: 0x14 }
  - { offsetInCU: 0x12A86, offset: 0x12A86, size: 0x8, addend: 0x0, symName: __ZNSt3__16vectorINS0_INS0_IhNS_9allocatorIhEEEENS1_IS3_EEEENS1_IS5_EEE21_ConstructTransactionD2B8ne180100Ev, symObjAddr: 0x3E48, symBinAddr: 0x1000044C8, symSize: 0x20 }
  - { offsetInCU: 0x12ABA, offset: 0x12ABA, size: 0x8, addend: 0x0, symName: __ZNKSt3__111__copy_loopINS_17_ClassicAlgPolicyEEclB8ne180100IPNS_6vectorINS4_IhNS_9allocatorIhEEEENS5_IS7_EEEESA_SA_EENS_4pairIT_T1_EESC_T0_SD_, symObjAddr: 0x3F60, symBinAddr: 0x1000045E0, symSize: 0x88 }
  - { offsetInCU: 0x12B25, offset: 0x12B25, size: 0x8, addend: 0x0, symName: __ZNSt3__16vectorINS0_INS0_IhNS_9allocatorIhEEEENS1_IS3_EEEENS1_IS5_EEE22__base_destruct_at_endB8ne180100EPS5_, symObjAddr: 0x4014, symBinAddr: 0x100004694, symSize: 0x8C }
  - { offsetInCU: 0x12B69, offset: 0x12B69, size: 0x8, addend: 0x0, symName: __ZNKSt3__16vectorINS0_INS0_IhNS_9allocatorIhEEEENS1_IS3_EEEENS1_IS5_EEE17__annotate_shrinkB8ne180100Em, symObjAddr: 0x40A0, symBinAddr: 0x100004720, symSize: 0x14 }
  - { offsetInCU: 0x12B9E, offset: 0x12B9E, size: 0x8, addend: 0x0, symName: __ZNSt3__16vectorINS0_INS0_IhNS_9allocatorIhEEEENS1_IS3_EEEENS1_IS5_EEE5clearB8ne180100Ev, symObjAddr: 0x40B4, symBinAddr: 0x100004734, symSize: 0x44 }
  - { offsetInCU: 0x12BD3, offset: 0x12BD3, size: 0x8, addend: 0x0, symName: __ZNKSt3__16vectorINS0_INS0_IhNS_9allocatorIhEEEENS1_IS3_EEEENS1_IS5_EEE17__annotate_deleteB8ne180100Ev, symObjAddr: 0x40F8, symBinAddr: 0x100004778, symSize: 0x10 }
  - { offsetInCU: 0x12BF9, offset: 0x12BF9, size: 0x8, addend: 0x0, symName: __ZNSt3__116allocator_traitsINS_9allocatorINS_6vectorINS2_IhNS1_IhEEEENS1_IS4_EEEEEEE10deallocateB8ne180100ERS7_PS6_m, symObjAddr: 0x4108, symBinAddr: 0x100004788, symSize: 0x34 }
  - { offsetInCU: 0x12C3B, offset: 0x12C3B, size: 0x8, addend: 0x0, symName: __ZNSt3__16vectorINS0_INS0_IhNS_9allocatorIhEEEENS1_IS3_EEEENS1_IS5_EEE9__end_capB8ne180100Ev, symObjAddr: 0x413C, symBinAddr: 0x1000047BC, symSize: 0x28 }
  - { offsetInCU: 0x12C61, offset: 0x12C61, size: 0x8, addend: 0x0, symName: __ZNSt3__16vectorINS0_INS0_IhNS_9allocatorIhEEEENS1_IS3_EEEENS1_IS5_EEE7__clearB8ne180100Ev, symObjAddr: 0x4164, symBinAddr: 0x1000047E4, symSize: 0x28 }
  - { offsetInCU: 0x12C87, offset: 0x12C87, size: 0x8, addend: 0x0, symName: __ZNSt3__19allocatorINS_6vectorINS1_IhNS0_IhEEEENS0_IS3_EEEEE10deallocateB8ne180100EPS5_m, symObjAddr: 0x418C, symBinAddr: 0x10000480C, symSize: 0x44 }
  - { offsetInCU: 0x12CC9, offset: 0x12CC9, size: 0x8, addend: 0x0, symName: __ZNSt3__117__compressed_pairIPNS_6vectorINS1_IhNS_9allocatorIhEEEENS2_IS4_EEEENS2_IS6_EEE5firstB8ne180100Ev, symObjAddr: 0x41D0, symBinAddr: 0x100004850, symSize: 0x24 }
  - { offsetInCU: 0x12CEF, offset: 0x12CEF, size: 0x8, addend: 0x0, symName: __ZNSt3__122__compressed_pair_elemIPNS_6vectorINS1_IhNS_9allocatorIhEEEENS2_IS4_EEEELi0ELb0EE5__getB8ne180100Ev, symObjAddr: 0x41F4, symBinAddr: 0x100004874, symSize: 0x14 }
  - { offsetInCU: 0x12D15, offset: 0x12D15, size: 0x8, addend: 0x0, symName: __ZNKSt3__16vectorINS0_INS0_IhNS_9allocatorIhEEEENS1_IS3_EEEENS1_IS5_EEE8max_sizeEv, symObjAddr: 0x4208, symBinAddr: 0x100004888, symSize: 0x60 }
  - { offsetInCU: 0x12D3D, offset: 0x12D3D, size: 0x8, addend: 0x0, symName: __ZNKSt3__16vectorINS0_INS0_IhNS_9allocatorIhEEEENS1_IS3_EEEENS1_IS5_EEE20__throw_length_errorB8ne180100Ev, symObjAddr: 0x4268, symBinAddr: 0x1000048E8, symSize: 0x1C }
  - { offsetInCU: 0x12D63, offset: 0x12D63, size: 0x8, addend: 0x0, symName: __ZNKSt3__16vectorINS0_INS0_IhNS_9allocatorIhEEEENS1_IS3_EEEENS1_IS5_EEE14__annotate_newB8ne180100Em, symObjAddr: 0x42C4, symBinAddr: 0x100004944, symSize: 0x14 }
  - { offsetInCU: 0x12DA2, offset: 0x12DA2, size: 0x8, addend: 0x0, symName: __ZNSt3__116allocator_traitsINS_9allocatorINS_6vectorINS2_IhNS1_IhEEEENS1_IS4_EEEEEEE8max_sizeB8ne180100IS7_vEEmRKS7_, symObjAddr: 0x42D8, symBinAddr: 0x100004958, symSize: 0x24 }
  - { offsetInCU: 0x12DD0, offset: 0x12DD0, size: 0x8, addend: 0x0, symName: __ZNKSt3__16vectorINS0_INS0_IhNS_9allocatorIhEEEENS1_IS3_EEEENS1_IS5_EEE7__allocB8ne180100Ev, symObjAddr: 0x42FC, symBinAddr: 0x10000497C, symSize: 0x28 }
  - { offsetInCU: 0x12DF6, offset: 0x12DF6, size: 0x8, addend: 0x0, symName: __ZNKSt3__19allocatorINS_6vectorINS1_IhNS0_IhEEEENS0_IS3_EEEEE8max_sizeB8ne180100Ev, symObjAddr: 0x4324, symBinAddr: 0x1000049A4, symSize: 0x18 }
  - { offsetInCU: 0x12E1C, offset: 0x12E1C, size: 0x8, addend: 0x0, symName: __ZNKSt3__117__compressed_pairIPNS_6vectorINS1_IhNS_9allocatorIhEEEENS2_IS4_EEEENS2_IS6_EEE6secondB8ne180100Ev, symObjAddr: 0x433C, symBinAddr: 0x1000049BC, symSize: 0x24 }
  - { offsetInCU: 0x12E42, offset: 0x12E42, size: 0x8, addend: 0x0, symName: __ZNKSt3__122__compressed_pair_elemINS_9allocatorINS_6vectorINS2_IhNS1_IhEEEENS1_IS4_EEEEEELi1ELb1EE5__getB8ne180100Ev, symObjAddr: 0x4360, symBinAddr: 0x1000049E0, symSize: 0x14 }
  - { offsetInCU: 0x12E68, offset: 0x12E68, size: 0x8, addend: 0x0, symName: __ZNSt3__19allocatorINS_6vectorINS1_IhNS0_IhEEEENS0_IS3_EEEEE8allocateB8ne180100Em, symObjAddr: 0x4374, symBinAddr: 0x1000049F4, symSize: 0x5C }
  - { offsetInCU: 0x12E9C, offset: 0x12E9C, size: 0x8, addend: 0x0, symName: __ZNSt3__16vectorINS0_IhNS_9allocatorIhEEEENS1_IS3_EEE19__copy_assign_allocB8ne180100ERKS5_, symObjAddr: 0x4478, symBinAddr: 0x100004AF8, symSize: 0x2C }
  - { offsetInCU: 0x12ED1, offset: 0x12ED1, size: 0x8, addend: 0x0, symName: __ZNSt3__16vectorINS0_IhNS_9allocatorIhEEEENS1_IS3_EEE6assignIPS3_Li0EEEvT_S8_, symObjAddr: 0x44A4, symBinAddr: 0x100004B24, symSize: 0x5C }
  - { offsetInCU: 0x12F26, offset: 0x12F26, size: 0x8, addend: 0x0, symName: __ZNSt3__16vectorINS0_IhNS_9allocatorIhEEEENS1_IS3_EEE19__copy_assign_allocB8ne180100ERKS5_NS_17integral_constantIbLb0EEE, symObjAddr: 0x4500, symBinAddr: 0x100004B80, symSize: 0x14 }
  - { offsetInCU: 0x12F62, offset: 0x12F62, size: 0x8, addend: 0x0, symName: __ZNSt3__16vectorINS0_IhNS_9allocatorIhEEEENS1_IS3_EEE18__assign_with_sizeB8ne180100IPS3_S7_EEvT_T0_l, symObjAddr: 0x4514, symBinAddr: 0x100004B94, symSize: 0x164 }
  - { offsetInCU: 0x13014, offset: 0x13014, size: 0x8, addend: 0x0, symName: __ZNSt3__16vectorINS0_IhNS_9allocatorIhEEEENS1_IS3_EEE17__destruct_at_endB8ne180100EPS3_, symObjAddr: 0x475C, symBinAddr: 0x100004DDC, symSize: 0x4C }
  - { offsetInCU: 0x13058, offset: 0x13058, size: 0x8, addend: 0x0, symName: __ZNSt3__16vectorINS0_IhNS_9allocatorIhEEEENS1_IS3_EEE13__vdeallocateEv, symObjAddr: 0x47A8, symBinAddr: 0x100004E28, symSize: 0x94 }
  - { offsetInCU: 0x13080, offset: 0x13080, size: 0x8, addend: 0x0, symName: __ZNKSt3__16vectorINS0_IhNS_9allocatorIhEEEENS1_IS3_EEE11__recommendB8ne180100Em, symObjAddr: 0x483C, symBinAddr: 0x100004EBC, symSize: 0xB4 }
  - { offsetInCU: 0x130D5, offset: 0x130D5, size: 0x8, addend: 0x0, symName: __ZNKSt3__111__copy_loopINS_17_ClassicAlgPolicyEEclB8ne180100IPNS_6vectorIhNS_9allocatorIhEEEES8_S8_EENS_4pairIT_T1_EESA_T0_SB_, symObjAddr: 0x4A50, symBinAddr: 0x1000050D0, symSize: 0x88 }
  - { offsetInCU: 0x13140, offset: 0x13140, size: 0x8, addend: 0x0, symName: __ZNSt3__16vectorIhNS_9allocatorIhEEEaSB8ne180100ERKS3_, symObjAddr: 0x4B04, symBinAddr: 0x100005184, symSize: 0x68 }
  - { offsetInCU: 0x13177, offset: 0x13177, size: 0x8, addend: 0x0, symName: __ZNSt3__16vectorIhNS_9allocatorIhEEE19__copy_assign_allocB8ne180100ERKS3_, symObjAddr: 0x4B6C, symBinAddr: 0x1000051EC, symSize: 0x2C }
  - { offsetInCU: 0x131AC, offset: 0x131AC, size: 0x8, addend: 0x0, symName: __ZNSt3__16vectorIhNS_9allocatorIhEEE6assignIPhLi0EEEvT_S6_, symObjAddr: 0x4B98, symBinAddr: 0x100005218, symSize: 0x5C }
  - { offsetInCU: 0x13201, offset: 0x13201, size: 0x8, addend: 0x0, symName: __ZNSt3__16vectorIhNS_9allocatorIhEEE19__copy_assign_allocB8ne180100ERKS3_NS_17integral_constantIbLb0EEE, symObjAddr: 0x4BF4, symBinAddr: 0x100005274, symSize: 0x14 }
  - { offsetInCU: 0x1323D, offset: 0x1323D, size: 0x8, addend: 0x0, symName: __ZNSt3__16vectorIhNS_9allocatorIhEEE18__assign_with_sizeB8ne180100IPhS5_EEvT_T0_l, symObjAddr: 0x4C08, symBinAddr: 0x100005288, symSize: 0x164 }
  - { offsetInCU: 0x132EF, offset: 0x132EF, size: 0x8, addend: 0x0, symName: __ZNSt3__16vectorIhNS_9allocatorIhEEE17__destruct_at_endB8ne180100EPh, symObjAddr: 0x4DCC, symBinAddr: 0x10000544C, symSize: 0x4C }
  - { offsetInCU: 0x13333, offset: 0x13333, size: 0x8, addend: 0x0, symName: __ZNSt3__16vectorIhNS_9allocatorIhEEE13__vdeallocateEv, symObjAddr: 0x4E18, symBinAddr: 0x100005498, symSize: 0x94 }
  - { offsetInCU: 0x1335B, offset: 0x1335B, size: 0x8, addend: 0x0, symName: __ZNKSt3__16vectorIhNS_9allocatorIhEEE11__recommendB8ne180100Em, symObjAddr: 0x4EAC, symBinAddr: 0x10000552C, symSize: 0xB4 }
  - { offsetInCU: 0x133B0, offset: 0x133B0, size: 0x8, addend: 0x0, symName: __ZNKSt3__16vectorIhNS_9allocatorIhEEE17__annotate_shrinkB8ne180100Em, symObjAddr: 0x4FC0, symBinAddr: 0x100005640, symSize: 0x14 }
  - { offsetInCU: 0x133E5, offset: 0x133E5, size: 0x8, addend: 0x0, symName: __ZNSt3__16vectorIhNS_9allocatorIhEEE5clearB8ne180100Ev, symObjAddr: 0x4FD4, symBinAddr: 0x100005654, symSize: 0x44 }
  - { offsetInCU: 0x1341A, offset: 0x1341A, size: 0x8, addend: 0x0, symName: __ZNKSt3__16vectorINS0_IhNS_9allocatorIhEEEENS1_IS3_EEE17__annotate_shrinkB8ne180100Em, symObjAddr: 0x5038, symBinAddr: 0x1000056B8, symSize: 0x14 }
  - { offsetInCU: 0x1344F, offset: 0x1344F, size: 0x8, addend: 0x0, symName: __ZNSt3__16vectorINS0_IhNS_9allocatorIhEEEENS1_IS3_EEE5clearB8ne180100Ev, symObjAddr: 0x504C, symBinAddr: 0x1000056CC, symSize: 0x44 }
  - { offsetInCU: 0x13484, offset: 0x13484, size: 0x8, addend: 0x0, symName: __ZNSt3__16vectorItNS_9allocatorItEEE19__copy_assign_allocB8ne180100ERKS3_, symObjAddr: 0x50B8, symBinAddr: 0x100005738, symSize: 0x2C }
  - { offsetInCU: 0x134B9, offset: 0x134B9, size: 0x8, addend: 0x0, symName: __ZNSt3__16vectorItNS_9allocatorItEEE6assignIPtLi0EEEvT_S6_, symObjAddr: 0x50E4, symBinAddr: 0x100005764, symSize: 0x5C }
  - { offsetInCU: 0x1350E, offset: 0x1350E, size: 0x8, addend: 0x0, symName: __ZNSt3__16vectorItNS_9allocatorItEEE19__copy_assign_allocB8ne180100ERKS3_NS_17integral_constantIbLb0EEE, symObjAddr: 0x5140, symBinAddr: 0x1000057C0, symSize: 0x14 }
  - { offsetInCU: 0x1354A, offset: 0x1354A, size: 0x8, addend: 0x0, symName: __ZNSt3__16vectorItNS_9allocatorItEEE18__assign_with_sizeB8ne180100IPtS5_EEvT_T0_l, symObjAddr: 0x5154, symBinAddr: 0x1000057D4, symSize: 0x164 }
  - { offsetInCU: 0x135FC, offset: 0x135FC, size: 0x8, addend: 0x0, symName: __ZNKSt3__16vectorItNS_9allocatorItEEE8capacityB8ne180100Ev, symObjAddr: 0x52E4, symBinAddr: 0x100005964, symSize: 0x40 }
  - { offsetInCU: 0x13622, offset: 0x13622, size: 0x8, addend: 0x0, symName: __ZNKSt3__16vectorItNS_9allocatorItEEE4sizeB8ne180100Ev, symObjAddr: 0x5324, symBinAddr: 0x1000059A4, symSize: 0x28 }
  - { offsetInCU: 0x13648, offset: 0x13648, size: 0x8, addend: 0x0, symName: __ZNSt3__16vectorItNS_9allocatorItEEE18__construct_at_endIPtS5_EEvT_T0_m, symObjAddr: 0x53C0, symBinAddr: 0x100005A40, symSize: 0x8C }
  - { offsetInCU: 0x136BE, offset: 0x136BE, size: 0x8, addend: 0x0, symName: __ZNSt3__16vectorItNS_9allocatorItEEE17__destruct_at_endB8ne180100EPt, symObjAddr: 0x5490, symBinAddr: 0x100005B10, symSize: 0x4C }
  - { offsetInCU: 0x13702, offset: 0x13702, size: 0x8, addend: 0x0, symName: __ZNSt3__16vectorItNS_9allocatorItEEE13__vdeallocateEv, symObjAddr: 0x54DC, symBinAddr: 0x100005B5C, symSize: 0x94 }
  - { offsetInCU: 0x1372A, offset: 0x1372A, size: 0x8, addend: 0x0, symName: __ZNSt3__16vectorItNS_9allocatorItEEE11__vallocateB8ne180100Em, symObjAddr: 0x5570, symBinAddr: 0x100005BF0, symSize: 0xAC }
  - { offsetInCU: 0x1376E, offset: 0x1376E, size: 0x8, addend: 0x0, symName: __ZNKSt3__16vectorItNS_9allocatorItEEE11__recommendB8ne180100Em, symObjAddr: 0x561C, symBinAddr: 0x100005C9C, symSize: 0xB4 }
  - { offsetInCU: 0x137C3, offset: 0x137C3, size: 0x8, addend: 0x0, symName: __ZNKSt3__16vectorItNS_9allocatorItEEE9__end_capB8ne180100Ev, symObjAddr: 0x56D0, symBinAddr: 0x100005D50, symSize: 0x28 }
  - { offsetInCU: 0x137E9, offset: 0x137E9, size: 0x8, addend: 0x0, symName: __ZNKSt3__117__compressed_pairIPtNS_9allocatorItEEE5firstB8ne180100Ev, symObjAddr: 0x56F8, symBinAddr: 0x100005D78, symSize: 0x24 }
  - { offsetInCU: 0x1380F, offset: 0x1380F, size: 0x8, addend: 0x0, symName: __ZNKSt3__122__compressed_pair_elemIPtLi0ELb0EE5__getB8ne180100Ev, symObjAddr: 0x571C, symBinAddr: 0x100005D9C, symSize: 0x14 }
  - { offsetInCU: 0x1384E, offset: 0x1384E, size: 0x8, addend: 0x0, symName: __ZNSt3__16vectorItNS_9allocatorItEEE21_ConstructTransactionC1B8ne180100ERS3_m, symObjAddr: 0x5790, symBinAddr: 0x100005E10, symSize: 0x3C }
  - { offsetInCU: 0x13896, offset: 0x13896, size: 0x8, addend: 0x0, symName: __ZNSt3__16vectorItNS_9allocatorItEEE7__allocB8ne180100Ev, symObjAddr: 0x584C, symBinAddr: 0x100005ECC, symSize: 0x28 }
  - { offsetInCU: 0x138BC, offset: 0x138BC, size: 0x8, addend: 0x0, symName: __ZNSt3__16vectorItNS_9allocatorItEEE21_ConstructTransactionD1B8ne180100Ev, symObjAddr: 0x5874, symBinAddr: 0x100005EF4, symSize: 0x2C }
  - { offsetInCU: 0x138E6, offset: 0x138E6, size: 0x8, addend: 0x0, symName: __ZNSt3__16vectorItNS_9allocatorItEEE21_ConstructTransactionC2B8ne180100ERS3_m, symObjAddr: 0x58A0, symBinAddr: 0x100005F20, symSize: 0x44 }
  - { offsetInCU: 0x1394C, offset: 0x1394C, size: 0x8, addend: 0x0, symName: __ZNSt3__14pairIPtS1_EC1B8ne180100IS1_S1_Li0EEEOT_OT0_, symObjAddr: 0x5A14, symBinAddr: 0x100006094, symSize: 0x3C }
  - { offsetInCU: 0x139AA, offset: 0x139AA, size: 0x8, addend: 0x0, symName: __ZNSt3__14pairIPtS1_EC2B8ne180100IS1_S1_Li0EEEOT_OT0_, symObjAddr: 0x5A50, symBinAddr: 0x1000060D0, symSize: 0x34 }
  - { offsetInCU: 0x13A08, offset: 0x13A08, size: 0x8, addend: 0x0, symName: __ZNSt3__118__unwrap_iter_implIPtLb1EE8__unwrapB8ne180100ES1_, symObjAddr: 0x5A84, symBinAddr: 0x100006104, symSize: 0x24 }
  - { offsetInCU: 0x13A2B, offset: 0x13A2B, size: 0x8, addend: 0x0, symName: __ZNSt3__118__unwrap_iter_implIPtLb1EE8__rewrapB8ne180100ES1_S1_, symObjAddr: 0x5ABC, symBinAddr: 0x10000613C, symSize: 0x50 }
  - { offsetInCU: 0x13A5C, offset: 0x13A5C, size: 0x8, addend: 0x0, symName: __ZNSt3__117__compressed_pairIPtNS_9allocatorItEEE6secondB8ne180100Ev, symObjAddr: 0x5B0C, symBinAddr: 0x10000618C, symSize: 0x24 }
  - { offsetInCU: 0x13A82, offset: 0x13A82, size: 0x8, addend: 0x0, symName: __ZNSt3__122__compressed_pair_elemINS_9allocatorItEELi1ELb1EE5__getB8ne180100Ev, symObjAddr: 0x5B30, symBinAddr: 0x1000061B0, symSize: 0x14 }
  - { offsetInCU: 0x13AA8, offset: 0x13AA8, size: 0x8, addend: 0x0, symName: __ZNSt3__16vectorItNS_9allocatorItEEE21_ConstructTransactionD2B8ne180100Ev, symObjAddr: 0x5B44, symBinAddr: 0x1000061C4, symSize: 0x20 }
  - { offsetInCU: 0x13AD2, offset: 0x13AD2, size: 0x8, addend: 0x0, symName: __ZNKSt3__114__copy_trivialclB8ne180100IttLi0EEENS_4pairIPT_PT0_EES4_S4_S6_, symObjAddr: 0x5C5C, symBinAddr: 0x1000062DC, symSize: 0x48 }
  - { offsetInCU: 0x13B3A, offset: 0x13B3A, size: 0x8, addend: 0x0, symName: __ZNSt3__14pairIPtS1_EC1B8ne180100IRS1_S1_Li0EEEOT_OT0_, symObjAddr: 0x5DEC, symBinAddr: 0x10000646C, symSize: 0x3C }
  - { offsetInCU: 0x13B98, offset: 0x13B98, size: 0x8, addend: 0x0, symName: __ZNSt3__14pairIPtS1_EC2B8ne180100IRS1_S1_Li0EEEOT_OT0_, symObjAddr: 0x5E28, symBinAddr: 0x1000064A8, symSize: 0x34 }
  - { offsetInCU: 0x13BF6, offset: 0x13BF6, size: 0x8, addend: 0x0, symName: __ZNSt3__16vectorItNS_9allocatorItEEE22__base_destruct_at_endB8ne180100EPt, symObjAddr: 0x5E5C, symBinAddr: 0x1000064DC, symSize: 0x8C }
  - { offsetInCU: 0x13C3A, offset: 0x13C3A, size: 0x8, addend: 0x0, symName: __ZNKSt3__16vectorItNS_9allocatorItEEE17__annotate_shrinkB8ne180100Em, symObjAddr: 0x5EE8, symBinAddr: 0x100006568, symSize: 0x14 }
  - { offsetInCU: 0x13C6F, offset: 0x13C6F, size: 0x8, addend: 0x0, symName: __ZNSt3__116allocator_traitsINS_9allocatorItEEE7destroyB8ne180100ItvEEvRS2_PT_, symObjAddr: 0x5EFC, symBinAddr: 0x10000657C, symSize: 0x2C }
  - { offsetInCU: 0x13CAC, offset: 0x13CAC, size: 0x8, addend: 0x0, symName: __ZNSt3__19allocatorItE7destroyB8ne180100EPt, symObjAddr: 0x5F28, symBinAddr: 0x1000065A8, symSize: 0x14 }
  - { offsetInCU: 0x13CE0, offset: 0x13CE0, size: 0x8, addend: 0x0, symName: __ZNSt3__16vectorItNS_9allocatorItEEE5clearB8ne180100Ev, symObjAddr: 0x5F3C, symBinAddr: 0x1000065BC, symSize: 0x44 }
  - { offsetInCU: 0x13D15, offset: 0x13D15, size: 0x8, addend: 0x0, symName: __ZNKSt3__16vectorItNS_9allocatorItEEE17__annotate_deleteB8ne180100Ev, symObjAddr: 0x5F80, symBinAddr: 0x100006600, symSize: 0x10 }
  - { offsetInCU: 0x13D3B, offset: 0x13D3B, size: 0x8, addend: 0x0, symName: __ZNSt3__116allocator_traitsINS_9allocatorItEEE10deallocateB8ne180100ERS2_Ptm, symObjAddr: 0x5F90, symBinAddr: 0x100006610, symSize: 0x34 }
  - { offsetInCU: 0x13D7D, offset: 0x13D7D, size: 0x8, addend: 0x0, symName: __ZNSt3__16vectorItNS_9allocatorItEEE9__end_capB8ne180100Ev, symObjAddr: 0x5FC4, symBinAddr: 0x100006644, symSize: 0x28 }
  - { offsetInCU: 0x13DA3, offset: 0x13DA3, size: 0x8, addend: 0x0, symName: __ZNSt3__16vectorItNS_9allocatorItEEE7__clearB8ne180100Ev, symObjAddr: 0x5FEC, symBinAddr: 0x10000666C, symSize: 0x28 }
  - { offsetInCU: 0x13DC9, offset: 0x13DC9, size: 0x8, addend: 0x0, symName: __ZNSt3__19allocatorItE10deallocateB8ne180100EPtm, symObjAddr: 0x6014, symBinAddr: 0x100006694, symSize: 0x40 }
  - { offsetInCU: 0x13E0B, offset: 0x13E0B, size: 0x8, addend: 0x0, symName: __ZNSt3__117__compressed_pairIPtNS_9allocatorItEEE5firstB8ne180100Ev, symObjAddr: 0x6054, symBinAddr: 0x1000066D4, symSize: 0x24 }
  - { offsetInCU: 0x13E31, offset: 0x13E31, size: 0x8, addend: 0x0, symName: __ZNSt3__122__compressed_pair_elemIPtLi0ELb0EE5__getB8ne180100Ev, symObjAddr: 0x6078, symBinAddr: 0x1000066F8, symSize: 0x14 }
  - { offsetInCU: 0x13E57, offset: 0x13E57, size: 0x8, addend: 0x0, symName: __ZNKSt3__16vectorItNS_9allocatorItEEE8max_sizeEv, symObjAddr: 0x608C, symBinAddr: 0x10000670C, symSize: 0x60 }
  - { offsetInCU: 0x13E7F, offset: 0x13E7F, size: 0x8, addend: 0x0, symName: __ZNKSt3__16vectorItNS_9allocatorItEEE20__throw_length_errorB8ne180100Ev, symObjAddr: 0x60EC, symBinAddr: 0x10000676C, symSize: 0x1C }
  - { offsetInCU: 0x13EA5, offset: 0x13EA5, size: 0x8, addend: 0x0, symName: __ZNKSt3__16vectorItNS_9allocatorItEEE14__annotate_newB8ne180100Em, symObjAddr: 0x6148, symBinAddr: 0x1000067C8, symSize: 0x14 }
  - { offsetInCU: 0x13EE4, offset: 0x13EE4, size: 0x8, addend: 0x0, symName: __ZNSt3__116allocator_traitsINS_9allocatorItEEE8max_sizeB8ne180100IS2_vEEmRKS2_, symObjAddr: 0x615C, symBinAddr: 0x1000067DC, symSize: 0x24 }
  - { offsetInCU: 0x13F12, offset: 0x13F12, size: 0x8, addend: 0x0, symName: __ZNKSt3__16vectorItNS_9allocatorItEEE7__allocB8ne180100Ev, symObjAddr: 0x6180, symBinAddr: 0x100006800, symSize: 0x28 }
  - { offsetInCU: 0x13F38, offset: 0x13F38, size: 0x8, addend: 0x0, symName: __ZNKSt3__19allocatorItE8max_sizeB8ne180100Ev, symObjAddr: 0x61A8, symBinAddr: 0x100006828, symSize: 0x14 }
  - { offsetInCU: 0x13F5E, offset: 0x13F5E, size: 0x8, addend: 0x0, symName: __ZNKSt3__117__compressed_pairIPtNS_9allocatorItEEE6secondB8ne180100Ev, symObjAddr: 0x61BC, symBinAddr: 0x10000683C, symSize: 0x24 }
  - { offsetInCU: 0x13F84, offset: 0x13F84, size: 0x8, addend: 0x0, symName: __ZNKSt3__122__compressed_pair_elemINS_9allocatorItEELi1ELb1EE5__getB8ne180100Ev, symObjAddr: 0x61E0, symBinAddr: 0x100006860, symSize: 0x14 }
  - { offsetInCU: 0x13FAA, offset: 0x13FAA, size: 0x8, addend: 0x0, symName: __ZNSt3__19allocatorItE8allocateB8ne180100Em, symObjAddr: 0x61F4, symBinAddr: 0x100006874, symSize: 0x58 }
  - { offsetInCU: 0x13FDE, offset: 0x13FDE, size: 0x8, addend: 0x0, symName: __ZN17Ultimate_XO_stateD2Ev, symObjAddr: 0x6274, symBinAddr: 0x1000068F4, symSize: 0x60 }
  - { offsetInCU: 0x1400A, offset: 0x1400A, size: 0x8, addend: 0x0, symName: __ZNSt3__16vectorItNS_9allocatorItEEED1B8ne180100Ev, symObjAddr: 0x62D4, symBinAddr: 0x100006954, symSize: 0x2C }
  - { offsetInCU: 0x14034, offset: 0x14034, size: 0x8, addend: 0x0, symName: __ZNSt3__16vectorINS0_INS0_IhNS_9allocatorIhEEEENS1_IS3_EEEENS1_IS5_EEED1B8ne180100Ev, symObjAddr: 0x6300, symBinAddr: 0x100006980, symSize: 0x2C }
  - { offsetInCU: 0x1405E, offset: 0x1405E, size: 0x8, addend: 0x0, symName: __ZN10MCTS_stateD2Ev, symObjAddr: 0x632C, symBinAddr: 0x1000069AC, symSize: 0x14 }
  - { offsetInCU: 0x14088, offset: 0x14088, size: 0x8, addend: 0x0, symName: __ZNSt3__16vectorItNS_9allocatorItEEED2B8ne180100Ev, symObjAddr: 0x6340, symBinAddr: 0x1000069C0, symSize: 0x44 }
  - { offsetInCU: 0x140B2, offset: 0x140B2, size: 0x8, addend: 0x0, symName: __ZNSt3__16vectorItNS_9allocatorItEEE16__destroy_vectorC1B8ne180100ERS3_, symObjAddr: 0x6384, symBinAddr: 0x100006A04, symSize: 0x34 }
  - { offsetInCU: 0x140EB, offset: 0x140EB, size: 0x8, addend: 0x0, symName: __ZNSt3__16vectorItNS_9allocatorItEEE16__destroy_vectorclB8ne180100Ev, symObjAddr: 0x63B8, symBinAddr: 0x100006A38, symSize: 0x90 }
  - { offsetInCU: 0x14111, offset: 0x14111, size: 0x8, addend: 0x0, symName: __ZNSt3__16vectorItNS_9allocatorItEEE16__destroy_vectorC2B8ne180100ERS3_, symObjAddr: 0x6448, symBinAddr: 0x100006AC8, symSize: 0x20 }
  - { offsetInCU: 0x1414A, offset: 0x1414A, size: 0x8, addend: 0x0, symName: __ZNSt3__16vectorINS0_INS0_IhNS_9allocatorIhEEEENS1_IS3_EEEENS1_IS5_EEED2B8ne180100Ev, symObjAddr: 0x6468, symBinAddr: 0x100006AE8, symSize: 0x44 }
  - { offsetInCU: 0x14174, offset: 0x14174, size: 0x8, addend: 0x0, symName: __ZNSt3__16vectorINS0_INS0_IhNS_9allocatorIhEEEENS1_IS3_EEEENS1_IS5_EEE16__destroy_vectorC1B8ne180100ERS7_, symObjAddr: 0x64AC, symBinAddr: 0x100006B2C, symSize: 0x34 }
  - { offsetInCU: 0x141AD, offset: 0x141AD, size: 0x8, addend: 0x0, symName: __ZNSt3__16vectorINS0_INS0_IhNS_9allocatorIhEEEENS1_IS3_EEEENS1_IS5_EEE16__destroy_vectorclB8ne180100Ev, symObjAddr: 0x64E0, symBinAddr: 0x100006B60, symSize: 0x90 }
  - { offsetInCU: 0x141D3, offset: 0x141D3, size: 0x8, addend: 0x0, symName: __ZNSt3__16vectorINS0_INS0_IhNS_9allocatorIhEEEENS1_IS3_EEEENS1_IS5_EEE16__destroy_vectorC2B8ne180100ERS7_, symObjAddr: 0x6570, symBinAddr: 0x100006BF0, symSize: 0x20 }
  - { offsetInCU: 0x1420C, offset: 0x1420C, size: 0x8, addend: 0x0, symName: __ZNSt3__111char_traitsIcE6lengthB8ne180100EPKc, symObjAddr: 0x677C, symBinAddr: 0x100006DFC, symSize: 0x34 }
  - { offsetInCU: 0x1424D, offset: 0x1424D, size: 0x8, addend: 0x0, symName: __ZNKSt3__113basic_ostreamIcNS_11char_traitsIcEEE6sentrycvbB8ne180100Ev, symObjAddr: 0x67B0, symBinAddr: 0x100006E30, symSize: 0x1C }
  - { offsetInCU: 0x14273, offset: 0x14273, size: 0x8, addend: 0x0, symName: __ZNSt3__119ostreambuf_iteratorIcNS_11char_traitsIcEEEC1B8ne180100ERNS_13basic_ostreamIcS2_EE, symObjAddr: 0x6A0C, symBinAddr: 0x10000708C, symSize: 0x34 }
  - { offsetInCU: 0x142AB, offset: 0x142AB, size: 0x8, addend: 0x0, symName: __ZNKSt3__18ios_base5flagsB8ne180100Ev, symObjAddr: 0x6A40, symBinAddr: 0x1000070C0, symSize: 0x18 }
  - { offsetInCU: 0x142D3, offset: 0x142D3, size: 0x8, addend: 0x0, symName: __ZNKSt3__19basic_iosIcNS_11char_traitsIcEEE4fillB8ne180100Ev, symObjAddr: 0x6A58, symBinAddr: 0x1000070D8, symSize: 0x64 }
  - { offsetInCU: 0x142FB, offset: 0x142FB, size: 0x8, addend: 0x0, symName: __ZNKSt3__119ostreambuf_iteratorIcNS_11char_traitsIcEEE6failedB8ne180100Ev, symObjAddr: 0x6ABC, symBinAddr: 0x10000713C, symSize: 0x24 }
  - { offsetInCU: 0x14321, offset: 0x14321, size: 0x8, addend: 0x0, symName: __ZNSt3__19basic_iosIcNS_11char_traitsIcEEE8setstateB8ne180100Ej, symObjAddr: 0x6AE0, symBinAddr: 0x100007160, symSize: 0x2C }
  - { offsetInCU: 0x14356, offset: 0x14356, size: 0x8, addend: 0x0, symName: __ZNKSt3__18ios_base5widthB8ne180100Ev, symObjAddr: 0x6B0C, symBinAddr: 0x10000718C, symSize: 0x18 }
  - { offsetInCU: 0x1437E, offset: 0x1437E, size: 0x8, addend: 0x0, symName: __ZNSt3__115basic_streambufIcNS_11char_traitsIcEEE5sputnB8ne180100EPKcl, symObjAddr: 0x6B24, symBinAddr: 0x1000071A4, symSize: 0x3C }
  - { offsetInCU: 0x143C0, offset: 0x143C0, size: 0x8, addend: 0x0, symName: __ZNSt3__112basic_stringIcNS_11char_traitsIcEENS_9allocatorIcEEEC1B8ne180100Emc, symObjAddr: 0x6B60, symBinAddr: 0x1000071E0, symSize: 0x3C }
  - { offsetInCU: 0x14408, offset: 0x14408, size: 0x8, addend: 0x0, symName: __ZNKSt3__112basic_stringIcNS_11char_traitsIcEENS_9allocatorIcEEE4dataB8ne180100Ev, symObjAddr: 0x6B9C, symBinAddr: 0x10000721C, symSize: 0x28 }
  - { offsetInCU: 0x1442E, offset: 0x1442E, size: 0x8, addend: 0x0, symName: __ZNSt3__18ios_base5widthB8ne180100El, symObjAddr: 0x6BC4, symBinAddr: 0x100007244, symSize: 0x2C }
  - { offsetInCU: 0x14474, offset: 0x14474, size: 0x8, addend: 0x0, symName: __ZNSt3__112basic_stringIcNS_11char_traitsIcEENS_9allocatorIcEEEC2B8ne180100Emc, symObjAddr: 0x6BF0, symBinAddr: 0x100007270, symSize: 0x4C }
  - { offsetInCU: 0x144C1, offset: 0x144C1, size: 0x8, addend: 0x0, symName: __ZNSt3__117__compressed_pairINS_12basic_stringIcNS_11char_traitsIcEENS_9allocatorIcEEE5__repES5_EC1B8ne180100INS_18__default_init_tagESA_EEOT_OT0_, symObjAddr: 0x6C3C, symBinAddr: 0x1000072BC, symSize: 0x3C }
  - { offsetInCU: 0x14519, offset: 0x14519, size: 0x8, addend: 0x0, symName: __ZNSt3__117__compressed_pairINS_12basic_stringIcNS_11char_traitsIcEENS_9allocatorIcEEE5__repES5_EC2B8ne180100INS_18__default_init_tagESA_EEOT_OT0_, symObjAddr: 0x6C78, symBinAddr: 0x1000072F8, symSize: 0x3C }
  - { offsetInCU: 0x14571, offset: 0x14571, size: 0x8, addend: 0x0, symName: __ZNSt3__122__compressed_pair_elemINS_12basic_stringIcNS_11char_traitsIcEENS_9allocatorIcEEE5__repELi0ELb0EEC2B8ne180100ENS_18__default_init_tagE, symObjAddr: 0x6CB4, symBinAddr: 0x100007334, symSize: 0x14 }
  - { offsetInCU: 0x145A5, offset: 0x145A5, size: 0x8, addend: 0x0, symName: __ZNSt3__122__compressed_pair_elemINS_9allocatorIcEELi1ELb1EEC2B8ne180100ENS_18__default_init_tagE, symObjAddr: 0x6CC8, symBinAddr: 0x100007348, symSize: 0x2C }
  - { offsetInCU: 0x145D9, offset: 0x145D9, size: 0x8, addend: 0x0, symName: __ZNSt3__19allocatorIcEC2B8ne180100Ev, symObjAddr: 0x6CF4, symBinAddr: 0x100007374, symSize: 0x2C }
  - { offsetInCU: 0x14603, offset: 0x14603, size: 0x8, addend: 0x0, symName: __ZNSt3__116__non_trivial_ifILb1ENS_9allocatorIcEEEC2B8ne180100Ev, symObjAddr: 0x6D20, symBinAddr: 0x1000073A0, symSize: 0x14 }
  - { offsetInCU: 0x1462D, offset: 0x1462D, size: 0x8, addend: 0x0, symName: __ZNKSt3__112basic_stringIcNS_11char_traitsIcEENS_9allocatorIcEEE13__get_pointerB8ne180100Ev, symObjAddr: 0x6D48, symBinAddr: 0x1000073C8, symSize: 0x54 }
  - { offsetInCU: 0x14653, offset: 0x14653, size: 0x8, addend: 0x0, symName: __ZNKSt3__112basic_stringIcNS_11char_traitsIcEENS_9allocatorIcEEE9__is_longB8ne180100Ev, symObjAddr: 0x6D9C, symBinAddr: 0x10000741C, symSize: 0x38 }
  - { offsetInCU: 0x14679, offset: 0x14679, size: 0x8, addend: 0x0, symName: __ZNKSt3__112basic_stringIcNS_11char_traitsIcEENS_9allocatorIcEEE18__get_long_pointerB8ne180100Ev, symObjAddr: 0x6DD4, symBinAddr: 0x100007454, symSize: 0x28 }
  - { offsetInCU: 0x1469F, offset: 0x1469F, size: 0x8, addend: 0x0, symName: __ZNKSt3__112basic_stringIcNS_11char_traitsIcEENS_9allocatorIcEEE19__get_short_pointerB8ne180100Ev, symObjAddr: 0x6DFC, symBinAddr: 0x10000747C, symSize: 0x28 }
  - { offsetInCU: 0x146C5, offset: 0x146C5, size: 0x8, addend: 0x0, symName: __ZNKSt3__117__compressed_pairINS_12basic_stringIcNS_11char_traitsIcEENS_9allocatorIcEEE5__repES5_E5firstB8ne180100Ev, symObjAddr: 0x6E24, symBinAddr: 0x1000074A4, symSize: 0x24 }
  - { offsetInCU: 0x146EB, offset: 0x146EB, size: 0x8, addend: 0x0, symName: __ZNKSt3__122__compressed_pair_elemINS_12basic_stringIcNS_11char_traitsIcEENS_9allocatorIcEEE5__repELi0ELb0EE5__getB8ne180100Ev, symObjAddr: 0x6E48, symBinAddr: 0x1000074C8, symSize: 0x14 }
  - { offsetInCU: 0x14711, offset: 0x14711, size: 0x8, addend: 0x0, symName: __ZNSt3__114pointer_traitsIPKcE10pointer_toB8ne180100ERS1_, symObjAddr: 0x6E5C, symBinAddr: 0x1000074DC, symSize: 0x14 }
  - { offsetInCU: 0x14734, offset: 0x14734, size: 0x8, addend: 0x0, symName: __ZNSt3__119ostreambuf_iteratorIcNS_11char_traitsIcEEEC2B8ne180100ERNS_13basic_ostreamIcS2_EE, symObjAddr: 0x6E70, symBinAddr: 0x1000074F0, symSize: 0x54 }
  - { offsetInCU: 0x1476C, offset: 0x1476C, size: 0x8, addend: 0x0, symName: __ZNKSt3__19basic_iosIcNS_11char_traitsIcEEE5rdbufB8ne180100Ev, symObjAddr: 0x6EC4, symBinAddr: 0x100007544, symSize: 0x24 }
  - { offsetInCU: 0x14794, offset: 0x14794, size: 0x8, addend: 0x0, symName: __ZNKSt3__18ios_base5rdbufB8ne180100Ev, symObjAddr: 0x6EE8, symBinAddr: 0x100007568, symSize: 0x18 }
  - { offsetInCU: 0x147BA, offset: 0x147BA, size: 0x8, addend: 0x0, symName: __ZNSt3__111char_traitsIcE11eq_int_typeB8ne180100Eii, symObjAddr: 0x6F00, symBinAddr: 0x100007580, symSize: 0x28 }
  - { offsetInCU: 0x147ED, offset: 0x147ED, size: 0x8, addend: 0x0, symName: __ZNSt3__111char_traitsIcE3eofB8ne180100Ev, symObjAddr: 0x6F28, symBinAddr: 0x1000075A8, symSize: 0x8 }
  - { offsetInCU: 0x14801, offset: 0x14801, size: 0x8, addend: 0x0, symName: __ZNKSt3__19basic_iosIcNS_11char_traitsIcEEE5widenB8ne180100Ec, symObjAddr: 0x6F30, symBinAddr: 0x1000075B0, symSize: 0x84 }
  - { offsetInCU: 0x1486A, offset: 0x1486A, size: 0x8, addend: 0x0, symName: __ZNKSt3__15ctypeIcE5widenB8ne180100Ec, symObjAddr: 0x6FE0, symBinAddr: 0x100007660, symSize: 0x38 }
  - { offsetInCU: 0x1489F, offset: 0x1489F, size: 0x8, addend: 0x0, symName: __ZNSt3__18ios_base8setstateB8ne180100Ej, symObjAddr: 0x7018, symBinAddr: 0x100007698, symSize: 0x34 }
  - { offsetInCU: 0x148D6, offset: 0x148D6, size: 0x8, addend: 0x0, symName: __ZN16Ultimate_XO_moveC1Eii, symObjAddr: 0x7070, symBinAddr: 0x1000076F0, symSize: 0x3C }
  - { offsetInCU: 0x1491C, offset: 0x1491C, size: 0x8, addend: 0x0, symName: __ZNSt3__110unique_ptrI16Ultimate_XO_moveNS_14default_deleteIS1_EEEC1B8ne180100ILb1EvEEPS1_, symObjAddr: 0x70AC, symBinAddr: 0x10000772C, symSize: 0x34 }
  - { offsetInCU: 0x1495F, offset: 0x1495F, size: 0x8, addend: 0x0, symName: __ZN16Ultimate_XO_moveC2Eii, symObjAddr: 0x70E0, symBinAddr: 0x100007760, symSize: 0x5C }
  - { offsetInCU: 0x149A5, offset: 0x149A5, size: 0x8, addend: 0x0, symName: __ZN9MCTS_moveC2Ev, symObjAddr: 0x713C, symBinAddr: 0x1000077BC, symSize: 0x24 }
  - { offsetInCU: 0x149D1, offset: 0x149D1, size: 0x8, addend: 0x0, symName: __ZN9MCTS_moveD1Ev, symObjAddr: 0x7160, symBinAddr: 0x1000077E0, symSize: 0x14 }
  - { offsetInCU: 0x149FB, offset: 0x149FB, size: 0x8, addend: 0x0, symName: __ZN9MCTS_moveD0Ev, symObjAddr: 0x7174, symBinAddr: 0x1000077F4, symSize: 0xC }
  - { offsetInCU: 0x14A25, offset: 0x14A25, size: 0x8, addend: 0x0, symName: __ZNK9MCTS_move6sprintEv, symObjAddr: 0x7180, symBinAddr: 0x100007800, symSize: 0x3C }
  - { offsetInCU: 0x14A50, offset: 0x14A50, size: 0x8, addend: 0x0, symName: __ZNSt3__112basic_stringIcNS_11char_traitsIcEENS_9allocatorIcEEEC1B8ne180100ILi0EEEPKc, symObjAddr: 0x71BC, symBinAddr: 0x10000783C, symSize: 0x34 }
  - { offsetInCU: 0x14A8F, offset: 0x14A8F, size: 0x8, addend: 0x0, symName: __ZNSt3__112basic_stringIcNS_11char_traitsIcEENS_9allocatorIcEEEC2B8ne180100ILi0EEEPKc, symObjAddr: 0x71F0, symBinAddr: 0x100007870, symSize: 0x58 }
  - { offsetInCU: 0x14ACE, offset: 0x14ACE, size: 0x8, addend: 0x0, symName: __ZNSt3__110unique_ptrI16Ultimate_XO_moveNS_14default_deleteIS1_EEEC2B8ne180100ILb1EvEEPS1_, symObjAddr: 0x7248, symBinAddr: 0x1000078C8, symSize: 0x44 }
  - { offsetInCU: 0x14B16, offset: 0x14B16, size: 0x8, addend: 0x0, symName: __ZNSt3__117__compressed_pairIP16Ultimate_XO_moveNS_14default_deleteIS1_EEEC1B8ne180100IRS2_NS_16__value_init_tagEEEOT_OT0_, symObjAddr: 0x728C, symBinAddr: 0x10000790C, symSize: 0x3C }
  - { offsetInCU: 0x14B6E, offset: 0x14B6E, size: 0x8, addend: 0x0, symName: __ZNSt3__117__compressed_pairIP16Ultimate_XO_moveNS_14default_deleteIS1_EEEC2B8ne180100IRS2_NS_16__value_init_tagEEEOT_OT0_, symObjAddr: 0x72C8, symBinAddr: 0x100007948, symSize: 0x40 }
  - { offsetInCU: 0x14BC6, offset: 0x14BC6, size: 0x8, addend: 0x0, symName: __ZNSt3__122__compressed_pair_elemIP16Ultimate_XO_moveLi0ELb0EEC2B8ne180100IRS2_vEEOT_, symObjAddr: 0x7308, symBinAddr: 0x100007988, symSize: 0x24 }
  - { offsetInCU: 0x14C08, offset: 0x14C08, size: 0x8, addend: 0x0, symName: __ZNSt3__122__compressed_pair_elemINS_14default_deleteI16Ultimate_XO_moveEELi1ELb1EEC2B8ne180100ENS_16__value_init_tagE, symObjAddr: 0x732C, symBinAddr: 0x1000079AC, symSize: 0x14 }
  - { offsetInCU: 0x14C3C, offset: 0x14C3C, size: 0x8, addend: 0x0, symName: __ZNSt3__110unique_ptrI16Ultimate_XO_moveNS_14default_deleteIS1_EEED2B8ne180100Ev, symObjAddr: 0x7340, symBinAddr: 0x1000079C0, symSize: 0x30 }
  - { offsetInCU: 0x14C66, offset: 0x14C66, size: 0x8, addend: 0x0, symName: __ZNSt3__110unique_ptrI16Ultimate_XO_moveNS_14default_deleteIS1_EEE5resetB8ne180100EPS1_, symObjAddr: 0x7370, symBinAddr: 0x1000079F0, symSize: 0x78 }
  - { offsetInCU: 0x14CAA, offset: 0x14CAA, size: 0x8, addend: 0x0, symName: __ZNSt3__117__compressed_pairIP16Ultimate_XO_moveNS_14default_deleteIS1_EEE5firstB8ne180100Ev, symObjAddr: 0x73E8, symBinAddr: 0x100007A68, symSize: 0x24 }
  - { offsetInCU: 0x14CD0, offset: 0x14CD0, size: 0x8, addend: 0x0, symName: __ZNSt3__117__compressed_pairIP16Ultimate_XO_moveNS_14default_deleteIS1_EEE6secondB8ne180100Ev, symObjAddr: 0x740C, symBinAddr: 0x100007A8C, symSize: 0x24 }
  - { offsetInCU: 0x14CF6, offset: 0x14CF6, size: 0x8, addend: 0x0, symName: __ZNKSt3__114default_deleteI16Ultimate_XO_moveEclB8ne180100EPS1_, symObjAddr: 0x7430, symBinAddr: 0x100007AB0, symSize: 0x4C }
  - { offsetInCU: 0x14D2A, offset: 0x14D2A, size: 0x8, addend: 0x0, symName: __ZNSt3__122__compressed_pair_elemIP16Ultimate_XO_moveLi0ELb0EE5__getB8ne180100Ev, symObjAddr: 0x747C, symBinAddr: 0x100007AFC, symSize: 0x14 }
  - { offsetInCU: 0x14D50, offset: 0x14D50, size: 0x8, addend: 0x0, symName: __ZNSt3__122__compressed_pair_elemINS_14default_deleteI16Ultimate_XO_moveEELi1ELb1EE5__getB8ne180100Ev, symObjAddr: 0x7490, symBinAddr: 0x100007B10, symSize: 0x14 }
  - { offsetInCU: 0x14D76, offset: 0x14D76, size: 0x8, addend: 0x0, symName: __ZNKSt3__117__compressed_pairIP16Ultimate_XO_moveNS_14default_deleteIS1_EEE5firstB8ne180100Ev, symObjAddr: 0x74A4, symBinAddr: 0x100007B24, symSize: 0x24 }
  - { offsetInCU: 0x14D9C, offset: 0x14D9C, size: 0x8, addend: 0x0, symName: __ZNKSt3__122__compressed_pair_elemIP16Ultimate_XO_moveLi0ELb0EE5__getB8ne180100Ev, symObjAddr: 0x74C8, symBinAddr: 0x100007B48, symSize: 0x14 }
  - { offsetInCU: 0xAAC9, offset: 0x1FA1A, size: 0x8, addend: 0x0, symName: __ZNSt3__14endlB8ne180100IcNS_11char_traitsIcEEEERNS_13basic_ostreamIT_T0_EES7_, symObjAddr: 0x132C, symBinAddr: 0x100008D74, symSize: 0x58 }
  - { offsetInCU: 0xAB09, offset: 0x1FA5A, size: 0x8, addend: 0x0, symName: __ZNSt3__1neB8ne180100IPKhEEbRKNS_11__wrap_iterIT_EES7_, symObjAddr: 0x1D1C, symBinAddr: 0x100009728, symSize: 0x34 }
  - { offsetInCU: 0xAB4C, offset: 0x1FA9D, size: 0x8, addend: 0x0, symName: __ZNSt3__1lsB8ne180100INS_11char_traitsIcEEEERNS_13basic_ostreamIcT_EES6_c, symObjAddr: 0x1D68, symBinAddr: 0x100009774, symSize: 0x34 }
  - { offsetInCU: 0xAB92, offset: 0x1FAE3, size: 0x8, addend: 0x0, symName: __ZNSt3__1neB8ne180100IPKNS_6vectorIhNS_9allocatorIhEEEEEEbRKNS_11__wrap_iterIT_EESB_, symObjAddr: 0x1E1C, symBinAddr: 0x100009828, symSize: 0x34 }
  - { offsetInCU: 0xABD5, offset: 0x1FB26, size: 0x8, addend: 0x0, symName: __ZNSt3__1neB8ne180100ERKNS_16__deque_iteratorIP9MCTS_movePS2_RS2_PS3_lLl512EEES8_, symObjAddr: 0x25A8, symBinAddr: 0x100009EAC, symSize: 0x34 }
  - { offsetInCU: 0xAC12, offset: 0x1FB63, size: 0x8, addend: 0x0, symName: __ZNSt3__1eqB8ne180100ERKNS_16__deque_iteratorIP9MCTS_movePS2_RS2_PS3_lLl512EEES8_, symObjAddr: 0x285C, symBinAddr: 0x10000A154, symSize: 0x30 }
  - { offsetInCU: 0xAC50, offset: 0x1FBA1, size: 0x8, addend: 0x0, symName: __ZNSt3__112__to_addressB8ne180100IPP9MCTS_moveEEPT_S5_, symObjAddr: 0x2C40, symBinAddr: 0x10000A4BC, symSize: 0x14 }
  - { offsetInCU: 0xAC85, offset: 0x1FBD6, size: 0x8, addend: 0x0, symName: __ZNSt3__1eqB8ne180100IPKhEEbRKNS_11__wrap_iterIT_EES7_, symObjAddr: 0x2D40, symBinAddr: 0x10000A5BC, symSize: 0x48 }
  - { offsetInCU: 0xACC8, offset: 0x1FC19, size: 0x8, addend: 0x0, symName: __ZNSt3__1eqB8ne180100IPKNS_6vectorIhNS_9allocatorIhEEEEEEbRKNS_11__wrap_iterIT_EESB_, symObjAddr: 0x2DA0, symBinAddr: 0x10000A61C, symSize: 0x48 }
  - { offsetInCU: 0xAD0B, offset: 0x1FC5C, size: 0x8, addend: 0x0, symName: __ZNSt3__122__make_exception_guardB8ne180100INS_6vectorINS1_INS1_IhNS_9allocatorIhEEEENS2_IS4_EEEENS2_IS6_EEE16__destroy_vectorEEENS_28__exception_guard_exceptionsIT_EESB_, symObjAddr: 0x57B4, symBinAddr: 0x10000ADBC, symSize: 0x40 }
  - { offsetInCU: 0xAD40, offset: 0x1FC91, size: 0x8, addend: 0x0, symName: __ZNSt3__122__make_exception_guardB8ne180100INS_6vectorItNS_9allocatorItEEE16__destroy_vectorEEENS_28__exception_guard_exceptionsIT_EES7_, symObjAddr: 0x6330, symBinAddr: 0x10000B200, symSize: 0x40 }
  - { offsetInCU: 0xB1C6, offset: 0x20117, size: 0x8, addend: 0x0, symName: __ZNSt3__14swapB8ne180100IPPP9MCTS_moveEENS_9enable_ifIXaasr21is_move_constructibleIT_EE5valuesr18is_move_assignableIS6_EE5valueEvE4typeERS6_S9_, symObjAddr: 0xA770, symBinAddr: 0x10000CED4, symSize: 0x3C }
  - { offsetInCU: 0xB217, offset: 0x20168, size: 0x8, addend: 0x0, symName: __ZNSt3__14moveB8ne180100IPPP9MCTS_moveS4_EET0_T_S6_S5_, symObjAddr: 0xA854, symBinAddr: 0x10000CFB8, symSize: 0x40 }
  - { offsetInCU: 0xB271, offset: 0x201C2, size: 0x8, addend: 0x0, symName: __ZNSt3__16__moveB8ne180100INS_17_ClassicAlgPolicyEPPP9MCTS_moveS5_S5_EENS_4pairIT0_T2_EES7_T1_S8_, symObjAddr: 0xA95C, symBinAddr: 0x10000D0C0, symSize: 0x44 }
  - { offsetInCU: 0xB2DD, offset: 0x2022E, size: 0x8, addend: 0x0, symName: __ZNSt3__123__dispatch_copy_or_moveB8ne180100INS_17_ClassicAlgPolicyENS_11__move_loopIS1_EENS_14__move_trivialEPPP9MCTS_moveS8_S8_EENS_4pairIT2_T4_EESA_T3_SB_, symObjAddr: 0xA9A0, symBinAddr: 0x10000D104, symSize: 0x44 }
  - { offsetInCU: 0xB35B, offset: 0x202AC, size: 0x8, addend: 0x0, symName: __ZNSt3__121__unwrap_and_dispatchB8ne180100INS_10__overloadINS_11__move_loopINS_17_ClassicAlgPolicyEEENS_14__move_trivialEEEPPP9MCTS_moveSA_SA_Li0EEENS_4pairIT0_T2_EESC_T1_SD_, symObjAddr: 0xA9E4, symBinAddr: 0x10000D148, symSize: 0xB4 }
  - { offsetInCU: 0xB3E9, offset: 0x2033A, size: 0x8, addend: 0x0, symName: __ZNSt3__114__unwrap_rangeB8ne180100IPPP9MCTS_moveS4_EENS_4pairIT0_S6_EET_S8_, symObjAddr: 0xAA98, symBinAddr: 0x10000D1FC, symSize: 0x60 }
  - { offsetInCU: 0xB5AD, offset: 0x204FE, size: 0x8, addend: 0x0, symName: __ZNSt3__113__unwrap_iterB8ne180100IPPP9MCTS_moveNS_18__unwrap_iter_implIS4_Lb1EEELi0EEEDTclsrT0_8__unwrapclsr3stdE7declvalIT_EEEES8_, symObjAddr: 0xAB40, symBinAddr: 0x10000D2A4, symSize: 0x24 }
  - { offsetInCU: 0xB5F1, offset: 0x20542, size: 0x8, addend: 0x0, symName: __ZNSt3__19make_pairB8ne180100IPPP9MCTS_moveS4_EENS_4pairINS_18__unwrap_ref_decayIT_E4typeENS6_IT0_E4typeEEEOS7_OSA_, symObjAddr: 0xAB64, symBinAddr: 0x10000D2C8, symSize: 0x38 }
  - { offsetInCU: 0xB640, offset: 0x20591, size: 0x8, addend: 0x0, symName: __ZNSt3__114__rewrap_rangeB8ne180100IPPP9MCTS_moveS4_EET_S5_T0_, symObjAddr: 0xAB9C, symBinAddr: 0x10000D300, symSize: 0x2C }
  - { offsetInCU: 0xB68C, offset: 0x205DD, size: 0x8, addend: 0x0, symName: __ZNSt3__113__rewrap_iterB8ne180100IPPP9MCTS_moveS4_NS_18__unwrap_iter_implIS4_Lb1EEEEET_S7_T0_, symObjAddr: 0xABC8, symBinAddr: 0x10000D32C, symSize: 0x3C }
  - { offsetInCU: 0xB6E1, offset: 0x20632, size: 0x8, addend: 0x0, symName: __ZNSt3__119__copy_trivial_implB8ne180100IPP9MCTS_moveS3_EENS_4pairIPT_PT0_EES6_S6_S8_, symObjAddr: 0xAC04, symBinAddr: 0x10000D368, symSize: 0x80 }
  - { offsetInCU: 0xB749, offset: 0x2069A, size: 0x8, addend: 0x0, symName: __ZNSt3__119__constexpr_memmoveB8ne180100IPP9MCTS_moveS3_Li0EEEPT_S5_PT0_NS_15__element_countE, symObjAddr: 0xAC84, symBinAddr: 0x10000D3E8, symSize: 0x64 }
  - { offsetInCU: 0xB7B7, offset: 0x20708, size: 0x8, addend: 0x0, symName: __ZNSt3__19make_pairB8ne180100IRPPP9MCTS_moveS4_EENS_4pairINS_18__unwrap_ref_decayIT_E4typeENS7_IT0_E4typeEEEOS8_OSB_, symObjAddr: 0xACE8, symBinAddr: 0x10000D44C, symSize: 0x38 }
  - { offsetInCU: 0xB859, offset: 0x207AA, size: 0x8, addend: 0x0, symName: __ZNSt3__18distanceB8ne180100INS_13move_iteratorIPPP9MCTS_moveEEEENS_15iterator_traitsIT_E15difference_typeES8_S8_, symObjAddr: 0xAF50, symBinAddr: 0x10000D6B4, symSize: 0x3C }
  - { offsetInCU: 0xB89C, offset: 0x207ED, size: 0x8, addend: 0x0, symName: __ZNSt3__110__distanceB8ne180100INS_13move_iteratorIPPP9MCTS_moveEEEENS_15iterator_traitsIT_E15difference_typeES8_S8_NS_26random_access_iterator_tagE, symObjAddr: 0xB154, symBinAddr: 0x10000D8B8, symSize: 0x30 }
  - { offsetInCU: 0xB8E9, offset: 0x2083A, size: 0x8, addend: 0x0, symName: __ZNSt3__1miB8ne180100IPPP9MCTS_moveS4_EEDTmicldtfp_4baseEcldtfp0_4baseEERKNS_13move_iteratorIT_EERKNS6_IT0_EE, symObjAddr: 0xB184, symBinAddr: 0x10000D8E8, symSize: 0x48 }
  - { offsetInCU: 0xB938, offset: 0x20889, size: 0x8, addend: 0x0, symName: __ZNSt3__113move_backwardB8ne180100IPPP9MCTS_moveS4_EET0_T_S6_S5_, symObjAddr: 0xB2BC, symBinAddr: 0x10000DA20, symSize: 0x40 }
  - { offsetInCU: 0xB992, offset: 0x208E3, size: 0x8, addend: 0x0, symName: __ZNSt3__115__move_backwardB8ne180100INS_17_ClassicAlgPolicyEPPP9MCTS_moveS5_S5_EENS_4pairIT0_T2_EES7_T1_S8_, symObjAddr: 0xB2FC, symBinAddr: 0x10000DA60, symSize: 0x44 }
  - { offsetInCU: 0xB9FE, offset: 0x2094F, size: 0x8, addend: 0x0, symName: __ZNSt3__123__dispatch_copy_or_moveB8ne180100INS_17_ClassicAlgPolicyENS_20__move_backward_loopIS1_EENS_23__move_backward_trivialEPPP9MCTS_moveS8_S8_EENS_4pairIT2_T4_EESA_T3_SB_, symObjAddr: 0xB340, symBinAddr: 0x10000DAA4, symSize: 0x44 }
  - { offsetInCU: 0xBA7C, offset: 0x209CD, size: 0x8, addend: 0x0, symName: __ZNSt3__121__unwrap_and_dispatchB8ne180100INS_10__overloadINS_20__move_backward_loopINS_17_ClassicAlgPolicyEEENS_23__move_backward_trivialEEEPPP9MCTS_moveSA_SA_Li0EEENS_4pairIT0_T2_EESC_T1_SD_, symObjAddr: 0xB384, symBinAddr: 0x10000DAE8, symSize: 0xB4 }
  - { offsetInCU: 0xBB50, offset: 0x20AA1, size: 0x8, addend: 0x0, symName: __ZNSt3__128__copy_backward_trivial_implB8ne180100IPP9MCTS_moveS3_EENS_4pairIPT_PT0_EES6_S6_S8_, symObjAddr: 0xB480, symBinAddr: 0x10000DBE4, symSize: 0x90 }
  - { offsetInCU: 0xBBB8, offset: 0x20B09, size: 0x8, addend: 0x0, symName: __ZNSt3__19make_pairB8ne180100IRPPP9MCTS_moveS5_EENS_4pairINS_18__unwrap_ref_decayIT_E4typeENS7_IT0_E4typeEEEOS8_OSB_, symObjAddr: 0xB510, symBinAddr: 0x10000DC74, symSize: 0x38 }
  - { offsetInCU: 0xBC07, offset: 0x20B58, size: 0x8, addend: 0x0, symName: __ZNSt3__119__allocate_at_leastB8ne180100INS_9allocatorIPP9MCTS_moveEEEENS_19__allocation_resultINS_16allocator_traitsIT_E7pointerEEERS8_m, symObjAddr: 0xB71C, symBinAddr: 0x10000DE2C, symSize: 0x40 }
  - { offsetInCU: 0xBC4A, offset: 0x20B9B, size: 0x8, addend: 0x0, symName: __ZNSt3__112__to_addressB8ne180100IP9MCTS_moveEEPT_S4_, symObjAddr: 0xBEE0, symBinAddr: 0x10000E5F0, symSize: 0x14 }
  - { offsetInCU: 0xE892, offset: 0x237E3, size: 0x8, addend: 0x0, symName: __ZN17Ultimate_XO_stateC2Ev, symObjAddr: 0x0, symBinAddr: 0x100007B5C, symSize: 0x1C4 }
  - { offsetInCU: 0xE8BE, offset: 0x2380F, size: 0x8, addend: 0x0, symName: __ZN10MCTS_stateC2Ev, symObjAddr: 0x1C4, symBinAddr: 0x100007D20, symSize: 0x24 }
  - { offsetInCU: 0xE8EA, offset: 0x2383B, size: 0x8, addend: 0x0, symName: __ZNSt3__16vectorIhNS_9allocatorIhEEEC1EmRKh, symObjAddr: 0x1E8, symBinAddr: 0x100007D44, symSize: 0x3C }
  - { offsetInCU: 0xE934, offset: 0x23885, size: 0x8, addend: 0x0, symName: __ZNSt3__16vectorINS0_IhNS_9allocatorIhEEEENS1_IS3_EEEC1EmRKS3_, symObjAddr: 0x224, symBinAddr: 0x100007D80, symSize: 0x3C }
  - { offsetInCU: 0xE97E, offset: 0x238CF, size: 0x8, addend: 0x0, symName: __ZNSt3__16vectorINS0_INS0_IhNS_9allocatorIhEEEENS1_IS3_EEEENS1_IS5_EEEC1EmRKS5_, symObjAddr: 0x260, symBinAddr: 0x100007DBC, symSize: 0x3C }
  - { offsetInCU: 0xE9C8, offset: 0x23919, size: 0x8, addend: 0x0, symName: __ZNSt3__16vectorItNS_9allocatorItEEEC1EmRKt, symObjAddr: 0x2F4, symBinAddr: 0x100007DF8, symSize: 0x3C }
  - { offsetInCU: 0xEA12, offset: 0x23963, size: 0x8, addend: 0x0, symName: __ZN17Ultimate_XO_stateC1Ev, symObjAddr: 0x370, symBinAddr: 0x100007E34, symSize: 0x2C }
  - { offsetInCU: 0xEA3E, offset: 0x2398F, size: 0x8, addend: 0x0, symName: __ZN17Ultimate_XO_stateC2ERKS_, symObjAddr: 0x39C, symBinAddr: 0x100007E60, symSize: 0x120 }
  - { offsetInCU: 0xEA7D, offset: 0x239CE, size: 0x8, addend: 0x0, symName: __ZN10MCTS_stateC2ERKS_, symObjAddr: 0x4BC, symBinAddr: 0x100007F80, symSize: 0x28 }
  - { offsetInCU: 0xEAB2, offset: 0x23A03, size: 0x8, addend: 0x0, symName: __ZNSt3__16vectorINS0_INS0_IhNS_9allocatorIhEEEENS1_IS3_EEEENS1_IS5_EEEC1ERKS7_, symObjAddr: 0x4E4, symBinAddr: 0x100007FA8, symSize: 0x34 }
  - { offsetInCU: 0xEAED, offset: 0x23A3E, size: 0x8, addend: 0x0, symName: __ZNSt3__16vectorItNS_9allocatorItEEEC1ERKS3_, symObjAddr: 0x54C, symBinAddr: 0x100007FDC, symSize: 0x34 }
  - { offsetInCU: 0xEB28, offset: 0x23A79, size: 0x8, addend: 0x0, symName: __ZN17Ultimate_XO_stateC1ERKS_, symObjAddr: 0x580, symBinAddr: 0x100008010, symSize: 0x34 }
  - { offsetInCU: 0xEB62, offset: 0x23AB3, size: 0x8, addend: 0x0, symName: __ZNK17Ultimate_XO_state8get_turnEv, symObjAddr: 0x5B4, symBinAddr: 0x100008044, symSize: 0x28 }
  - { offsetInCU: 0xEB8A, offset: 0x23ADB, size: 0x8, addend: 0x0, symName: __ZNK17Ultimate_XO_state10get_winnerEv, symObjAddr: 0x5DC, symBinAddr: 0x10000806C, symSize: 0x18 }
  - { offsetInCU: 0xEBB2, offset: 0x23B03, size: 0x8, addend: 0x0, symName: __ZNK17Ultimate_XO_state11is_terminalEv, symObjAddr: 0x5F4, symBinAddr: 0x100008084, symSize: 0x24 }
  - { offsetInCU: 0xEBDA, offset: 0x23B2B, size: 0x8, addend: 0x0, symName: __ZNK17Ultimate_XO_state16calculate_winnerEv, symObjAddr: 0x618, symBinAddr: 0x1000080A8, symSize: 0xA4 }
  - { offsetInCU: 0xEC02, offset: 0x23B53, size: 0x8, addend: 0x0, symName: __ZNK17Ultimate_XO_state10player_wonE12game_state_t, symObjAddr: 0x6BC, symBinAddr: 0x10000814C, symSize: 0x2FC }
  - { offsetInCU: 0xEC55, offset: 0x23BA6, size: 0x8, addend: 0x0, symName: __ZNKSt3__16vectorItNS_9allocatorItEEEixB8ne180100Em, symObjAddr: 0x9B8, symBinAddr: 0x100008448, symSize: 0x24 }
  - { offsetInCU: 0xEC8C, offset: 0x23BDD, size: 0x8, addend: 0x0, symName: __ZNKSt3__16vectorINS0_IhNS_9allocatorIhEEEENS1_IS3_EEEixB8ne180100Em, symObjAddr: 0x9DC, symBinAddr: 0x10000846C, symSize: 0x2C }
  - { offsetInCU: 0xECC3, offset: 0x23C14, size: 0x8, addend: 0x0, symName: __ZNKSt3__16vectorIhNS_9allocatorIhEEEixB8ne180100Em, symObjAddr: 0xA08, symBinAddr: 0x100008498, symSize: 0x24 }
  - { offsetInCU: 0xECFA, offset: 0x23C4B, size: 0x8, addend: 0x0, symName: __ZNK17Ultimate_XO_state22calculate_local_winnerEv, symObjAddr: 0xA2C, symBinAddr: 0x1000084BC, symSize: 0x560 }
  - { offsetInCU: 0xED3F, offset: 0x23C90, size: 0x8, addend: 0x0, symName: __ZNKSt3__16vectorINS0_INS0_IhNS_9allocatorIhEEEENS1_IS3_EEEENS1_IS5_EEEixB8ne180100Em, symObjAddr: 0xF8C, symBinAddr: 0x100008A1C, symSize: 0x2C }
  - { offsetInCU: 0xED76, offset: 0x23CC7, size: 0x8, addend: 0x0, symName: __ZNK17Ultimate_XO_state10next_stateEPK9MCTS_move, symObjAddr: 0xFB8, symBinAddr: 0x100008A48, symSize: 0x300 }
  - { offsetInCU: 0xEDE4, offset: 0x23D35, size: 0x8, addend: 0x0, symName: __ZNSt3__113basic_ostreamIcNS_11char_traitsIcEEElsB8ne180100EPFRS3_S4_E, symObjAddr: 0x1300, symBinAddr: 0x100008D48, symSize: 0x2C }
  - { offsetInCU: 0xEE18, offset: 0x23D69, size: 0x8, addend: 0x0, symName: __ZNSt3__16vectorINS0_INS0_IhNS_9allocatorIhEEEENS1_IS3_EEEENS1_IS5_EEEixB8ne180100Em, symObjAddr: 0x1384, symBinAddr: 0x100008DCC, symSize: 0x2C }
  - { offsetInCU: 0xEE4F, offset: 0x23DA0, size: 0x8, addend: 0x0, symName: __ZNSt3__16vectorINS0_IhNS_9allocatorIhEEEENS1_IS3_EEEixB8ne180100Em, symObjAddr: 0x13B0, symBinAddr: 0x100008DF8, symSize: 0x2C }
  - { offsetInCU: 0xEE86, offset: 0x23DD7, size: 0x8, addend: 0x0, symName: __ZNSt3__16vectorIhNS_9allocatorIhEEEixB8ne180100Em, symObjAddr: 0x13DC, symBinAddr: 0x100008E24, symSize: 0x24 }
  - { offsetInCU: 0xEEBD, offset: 0x23E0E, size: 0x8, addend: 0x0, symName: __ZNSt3__16vectorItNS_9allocatorItEEEixB8ne180100Em, symObjAddr: 0x1400, symBinAddr: 0x100008E48, symSize: 0x24 }
  - { offsetInCU: 0xEEF4, offset: 0x23E45, size: 0x8, addend: 0x0, symName: __ZNK17Ultimate_XO_state14actions_to_tryEv, symObjAddr: 0x1424, symBinAddr: 0x100008E6C, symSize: 0x118 }
  - { offsetInCU: 0xEF4C, offset: 0x23E9D, size: 0x8, addend: 0x0, symName: __ZNSt3__15queueIP9MCTS_moveNS_5dequeIS2_NS_9allocatorIS2_EEEEEC1B8ne180100Ev, symObjAddr: 0x153C, symBinAddr: 0x100008F84, symSize: 0x2C }
  - { offsetInCU: 0xEF76, offset: 0x23EC7, size: 0x8, addend: 0x0, symName: __ZNSt3__15queueIP9MCTS_moveNS_5dequeIS2_NS_9allocatorIS2_EEEEE4pushB8ne180100EOS2_, symObjAddr: 0x1568, symBinAddr: 0x100008FB0, symSize: 0x2C }
  - { offsetInCU: 0xEFAB, offset: 0x23EFC, size: 0x8, addend: 0x0, symName: __ZNK17Ultimate_XO_state7rolloutEv, symObjAddr: 0x15D0, symBinAddr: 0x100008FDC, symSize: 0x310 }
  - { offsetInCU: 0xF04C, offset: 0x23F9D, size: 0x8, addend: 0x0, symName: __ZNKSt3__15queueIP9MCTS_moveNS_5dequeIS2_NS_9allocatorIS2_EEEEE5emptyB8ne180100Ev, symObjAddr: 0x18E0, symBinAddr: 0x1000092EC, symSize: 0x28 }
  - { offsetInCU: 0xF072, offset: 0x23FC3, size: 0x8, addend: 0x0, symName: __ZNSt3__15queueIP9MCTS_moveNS_5dequeIS2_NS_9allocatorIS2_EEEEED1Ev, symObjAddr: 0x1908, symBinAddr: 0x100009314, symSize: 0x2C }
  - { offsetInCU: 0xF09F, offset: 0x23FF0, size: 0x8, addend: 0x0, symName: __ZNKSt3__15queueIP9MCTS_moveNS_5dequeIS2_NS_9allocatorIS2_EEEEE4sizeB8ne180100Ev, symObjAddr: 0x1934, symBinAddr: 0x100009340, symSize: 0x24 }
  - { offsetInCU: 0xF0C5, offset: 0x24016, size: 0x8, addend: 0x0, symName: __ZNSt3__15queueIP9MCTS_moveNS_5dequeIS2_NS_9allocatorIS2_EEEEE5frontB8ne180100Ev, symObjAddr: 0x1958, symBinAddr: 0x100009364, symSize: 0x24 }
  - { offsetInCU: 0xF0EB, offset: 0x2403C, size: 0x8, addend: 0x0, symName: __ZNSt3__15queueIP9MCTS_moveNS_5dequeIS2_NS_9allocatorIS2_EEEEE3popB8ne180100Ev, symObjAddr: 0x197C, symBinAddr: 0x100009388, symSize: 0x24 }
  - { offsetInCU: 0xF111, offset: 0x24062, size: 0x8, addend: 0x0, symName: __ZNK17Ultimate_XO_state5printEv, symObjAddr: 0x19A0, symBinAddr: 0x1000093AC, symSize: 0x31C }
  - { offsetInCU: 0xF2A8, offset: 0x241F9, size: 0x8, addend: 0x0, symName: __ZNKSt3__16vectorIhNS_9allocatorIhEEE5beginB8ne180100Ev, symObjAddr: 0x1CBC, symBinAddr: 0x1000096C8, symSize: 0x30 }
  - { offsetInCU: 0xF2D0, offset: 0x24221, size: 0x8, addend: 0x0, symName: __ZNKSt3__16vectorIhNS_9allocatorIhEEE3endB8ne180100Ev, symObjAddr: 0x1CEC, symBinAddr: 0x1000096F8, symSize: 0x30 }
  - { offsetInCU: 0xF2F8, offset: 0x24249, size: 0x8, addend: 0x0, symName: __ZNKSt3__111__wrap_iterIPKhEdeB8ne180100Ev, symObjAddr: 0x1D50, symBinAddr: 0x10000975C, symSize: 0x18 }
  - { offsetInCU: 0xF31E, offset: 0x2426F, size: 0x8, addend: 0x0, symName: __ZNSt3__111__wrap_iterIPKhEppB8ne180100Ev, symObjAddr: 0x1D9C, symBinAddr: 0x1000097A8, symSize: 0x20 }
  - { offsetInCU: 0xF344, offset: 0x24295, size: 0x8, addend: 0x0, symName: __ZNKSt3__16vectorINS0_IhNS_9allocatorIhEEEENS1_IS3_EEE5beginB8ne180100Ev, symObjAddr: 0x1DBC, symBinAddr: 0x1000097C8, symSize: 0x30 }
  - { offsetInCU: 0xF36C, offset: 0x242BD, size: 0x8, addend: 0x0, symName: __ZNKSt3__16vectorINS0_IhNS_9allocatorIhEEEENS1_IS3_EEE3endB8ne180100Ev, symObjAddr: 0x1DEC, symBinAddr: 0x1000097F8, symSize: 0x30 }
  - { offsetInCU: 0xF394, offset: 0x242E5, size: 0x8, addend: 0x0, symName: __ZNKSt3__111__wrap_iterIPKNS_6vectorIhNS_9allocatorIhEEEEEdeB8ne180100Ev, symObjAddr: 0x1E50, symBinAddr: 0x10000985C, symSize: 0x18 }
  - { offsetInCU: 0xF3BA, offset: 0x2430B, size: 0x8, addend: 0x0, symName: __ZNSt3__111__wrap_iterIPKNS_6vectorIhNS_9allocatorIhEEEEEppB8ne180100Ev, symObjAddr: 0x1E68, symBinAddr: 0x100009874, symSize: 0x20 }
  - { offsetInCU: 0xF3E0, offset: 0x24331, size: 0x8, addend: 0x0, symName: __ZNK16Ultimate_XO_moveeqERK9MCTS_move, symObjAddr: 0x1E88, symBinAddr: 0x100009894, symSize: 0x70 }
  - { offsetInCU: 0xF424, offset: 0x24375, size: 0x8, addend: 0x0, symName: __ZN16Ultimate_XO_moveD1Ev, symObjAddr: 0x1EF8, symBinAddr: 0x100009904, symSize: 0x2C }
  - { offsetInCU: 0xF450, offset: 0x243A1, size: 0x8, addend: 0x0, symName: __ZN16Ultimate_XO_moveD0Ev, symObjAddr: 0x1F24, symBinAddr: 0x100009930, symSize: 0x30 }
  - { offsetInCU: 0xF47C, offset: 0x243CD, size: 0x8, addend: 0x0, symName: __ZN17Ultimate_XO_stateD0Ev, symObjAddr: 0x1FBC, symBinAddr: 0x100009960, symSize: 0x30 }
  - { offsetInCU: 0xF4A8, offset: 0x243F9, size: 0x8, addend: 0x0, symName: __ZNK17Ultimate_XO_state12player1_turnEv, symObjAddr: 0x1FEC, symBinAddr: 0x100009990, symSize: 0x30 }
  - { offsetInCU: 0xF4CE, offset: 0x2441F, size: 0x8, addend: 0x0, symName: __ZN10MCTS_stateD1Ev, symObjAddr: 0x201C, symBinAddr: 0x1000099C0, symSize: 0x14 }
  - { offsetInCU: 0xF4F8, offset: 0x24449, size: 0x8, addend: 0x0, symName: __ZN10MCTS_stateD0Ev, symObjAddr: 0x2030, symBinAddr: 0x1000099D4, symSize: 0xC }
  - { offsetInCU: 0xF522, offset: 0x24473, size: 0x8, addend: 0x0, symName: __ZNSt3__15queueIP9MCTS_moveNS_5dequeIS2_NS_9allocatorIS2_EEEEED2Ev, symObjAddr: 0x20DC, symBinAddr: 0x1000099E0, symSize: 0x2C }
  - { offsetInCU: 0xF54F, offset: 0x244A0, size: 0x8, addend: 0x0, symName: __ZNSt3__15dequeIP9MCTS_moveNS_9allocatorIS2_EEED1B8ne180100Ev, symObjAddr: 0x2108, symBinAddr: 0x100009A0C, symSize: 0x2C }
  - { offsetInCU: 0xF579, offset: 0x244CA, size: 0x8, addend: 0x0, symName: __ZNSt3__15dequeIP9MCTS_moveNS_9allocatorIS2_EEED2B8ne180100Ev, symObjAddr: 0x2134, symBinAddr: 0x100009A38, symSize: 0xA4 }
  - { offsetInCU: 0xF5D0, offset: 0x24521, size: 0x8, addend: 0x0, symName: __ZNSt3__15dequeIP9MCTS_moveNS_9allocatorIS2_EEE5clearEv, symObjAddr: 0x21D8, symBinAddr: 0x100009ADC, symSize: 0x194 }
  - { offsetInCU: 0xF62B, offset: 0x2457C, size: 0x8, addend: 0x0, symName: __ZNKSt3__15dequeIP9MCTS_moveNS_9allocatorIS2_EEE17__annotate_deleteB8ne180100Ev, symObjAddr: 0x236C, symBinAddr: 0x100009C70, symSize: 0x10 }
  - { offsetInCU: 0xF651, offset: 0x245A2, size: 0x8, addend: 0x0, symName: __ZNSt3__114__split_bufferIPP9MCTS_moveNS_9allocatorIS3_EEE5beginB8ne180100Ev, symObjAddr: 0x237C, symBinAddr: 0x100009C80, symSize: 0x18 }
  - { offsetInCU: 0xF677, offset: 0x245C8, size: 0x8, addend: 0x0, symName: __ZNSt3__114__split_bufferIPP9MCTS_moveNS_9allocatorIS3_EEE3endB8ne180100Ev, symObjAddr: 0x2394, symBinAddr: 0x100009C98, symSize: 0x18 }
  - { offsetInCU: 0xF69D, offset: 0x245EE, size: 0x8, addend: 0x0, symName: __ZNSt3__116allocator_traitsINS_9allocatorIP9MCTS_moveEEE10deallocateB8ne180100ERS4_PS3_m, symObjAddr: 0x23AC, symBinAddr: 0x100009CB0, symSize: 0x34 }
  - { offsetInCU: 0xF6DF, offset: 0x24630, size: 0x8, addend: 0x0, symName: __ZNSt3__15dequeIP9MCTS_moveNS_9allocatorIS2_EEE7__allocB8ne180100Ev, symObjAddr: 0x23E0, symBinAddr: 0x100009CE4, symSize: 0x28 }
  - { offsetInCU: 0xF705, offset: 0x24656, size: 0x8, addend: 0x0, symName: __ZNSt3__114__split_bufferIPP9MCTS_moveNS_9allocatorIS3_EEED1Ev, symObjAddr: 0x2408, symBinAddr: 0x100009D0C, symSize: 0x2C }
  - { offsetInCU: 0xF731, offset: 0x24682, size: 0x8, addend: 0x0, symName: __ZNSt3__15dequeIP9MCTS_moveNS_9allocatorIS2_EEE5beginB8ne180100Ev, symObjAddr: 0x2434, symBinAddr: 0x100009D38, symSize: 0xB8 }
  - { offsetInCU: 0xF766, offset: 0x246B7, size: 0x8, addend: 0x0, symName: __ZNSt3__15dequeIP9MCTS_moveNS_9allocatorIS2_EEE3endB8ne180100Ev, symObjAddr: 0x24EC, symBinAddr: 0x100009DF0, symSize: 0xBC }
  - { offsetInCU: 0xF7AA, offset: 0x246FB, size: 0x8, addend: 0x0, symName: __ZNSt3__116allocator_traitsINS_9allocatorIP9MCTS_moveEEE7destroyB8ne180100IS3_vEEvRS4_PT_, symObjAddr: 0x25E8, symBinAddr: 0x100009EE0, symSize: 0x2C }
  - { offsetInCU: 0xF7E7, offset: 0x24738, size: 0x8, addend: 0x0, symName: __ZNKSt3__116__deque_iteratorIP9MCTS_movePS2_RS2_PS3_lLl512EEdeB8ne180100Ev, symObjAddr: 0x2614, symBinAddr: 0x100009F0C, symSize: 0x18 }
  - { offsetInCU: 0xF80D, offset: 0x2475E, size: 0x8, addend: 0x0, symName: __ZNSt3__116__deque_iteratorIP9MCTS_movePS2_RS2_PS3_lLl512EEppB8ne180100Ev, symObjAddr: 0x262C, symBinAddr: 0x100009F24, symSize: 0x70 }
  - { offsetInCU: 0xF833, offset: 0x24784, size: 0x8, addend: 0x0, symName: __ZNSt3__15dequeIP9MCTS_moveNS_9allocatorIS2_EEE6__sizeB8ne180100Ev, symObjAddr: 0x269C, symBinAddr: 0x100009F94, symSize: 0x28 }
  - { offsetInCU: 0xF859, offset: 0x247AA, size: 0x8, addend: 0x0, symName: __ZNKSt3__114__split_bufferIPP9MCTS_moveNS_9allocatorIS3_EEE4sizeB8ne180100Ev, symObjAddr: 0x26C4, symBinAddr: 0x100009FBC, symSize: 0x28 }
  - { offsetInCU: 0xF87F, offset: 0x247D0, size: 0x8, addend: 0x0, symName: __ZNSt3__114__split_bufferIPP9MCTS_moveNS_9allocatorIS3_EEE5frontB8ne180100Ev, symObjAddr: 0x26EC, symBinAddr: 0x100009FE4, symSize: 0x18 }
  - { offsetInCU: 0xF8A5, offset: 0x247F6, size: 0x8, addend: 0x0, symName: __ZNSt3__114__split_bufferIPP9MCTS_moveNS_9allocatorIS3_EEE9pop_frontB8ne180100Ev, symObjAddr: 0x2704, symBinAddr: 0x100009FFC, symSize: 0x2C }
  - { offsetInCU: 0xF8CB, offset: 0x2481C, size: 0x8, addend: 0x0, symName: __ZNKSt3__15dequeIP9MCTS_moveNS_9allocatorIS2_EEE14__annotate_newB8ne180100Em, symObjAddr: 0x2730, symBinAddr: 0x10000A028, symSize: 0x14 }
  - { offsetInCU: 0xF900, offset: 0x24851, size: 0x8, addend: 0x0, symName: __ZNKSt3__114__split_bufferIPP9MCTS_moveNS_9allocatorIS3_EEE5emptyB8ne180100Ev, symObjAddr: 0x2744, symBinAddr: 0x10000A03C, symSize: 0x28 }
  - { offsetInCU: 0xF926, offset: 0x24877, size: 0x8, addend: 0x0, symName: __ZNSt3__116__deque_iteratorIP9MCTS_movePS2_RS2_PS3_lLl512EEC1B8ne180100ES5_S3_, symObjAddr: 0x276C, symBinAddr: 0x10000A064, symSize: 0x3C }
  - { offsetInCU: 0xF96E, offset: 0x248BF, size: 0x8, addend: 0x0, symName: __ZNSt3__116__deque_iteratorIP9MCTS_movePS2_RS2_PS3_lLl512EEC2B8ne180100ES5_S3_, symObjAddr: 0x27A8, symBinAddr: 0x10000A0A0, symSize: 0x2C }
  - { offsetInCU: 0xF9B6, offset: 0x24907, size: 0x8, addend: 0x0, symName: __ZNKSt3__15dequeIP9MCTS_moveNS_9allocatorIS2_EEE4sizeB8ne180100Ev, symObjAddr: 0x27D4, symBinAddr: 0x10000A0CC, symSize: 0x28 }
  - { offsetInCU: 0xF9DC, offset: 0x2492D, size: 0x8, addend: 0x0, symName: __ZNKSt3__15dequeIP9MCTS_moveNS_9allocatorIS2_EEE6__sizeB8ne180100Ev, symObjAddr: 0x27FC, symBinAddr: 0x10000A0F4, symSize: 0x28 }
  - { offsetInCU: 0xFA02, offset: 0x24953, size: 0x8, addend: 0x0, symName: __ZNKSt3__117__compressed_pairImNS_9allocatorIP9MCTS_moveEEE5firstB8ne180100Ev, symObjAddr: 0x2824, symBinAddr: 0x10000A11C, symSize: 0x24 }
  - { offsetInCU: 0xFA28, offset: 0x24979, size: 0x8, addend: 0x0, symName: __ZNKSt3__122__compressed_pair_elemImLi0ELb0EE5__getB8ne180100Ev, symObjAddr: 0x2848, symBinAddr: 0x10000A140, symSize: 0x14 }
  - { offsetInCU: 0xFA4E, offset: 0x2499F, size: 0x8, addend: 0x0, symName: __ZNSt3__19allocatorIP9MCTS_moveE7destroyB8ne180100EPS2_, symObjAddr: 0x288C, symBinAddr: 0x10000A184, symSize: 0x14 }
  - { offsetInCU: 0xFA82, offset: 0x249D3, size: 0x8, addend: 0x0, symName: __ZNSt3__117__compressed_pairImNS_9allocatorIP9MCTS_moveEEE5firstB8ne180100Ev, symObjAddr: 0x28A0, symBinAddr: 0x10000A198, symSize: 0x24 }
  - { offsetInCU: 0xFAA8, offset: 0x249F9, size: 0x8, addend: 0x0, symName: __ZNSt3__122__compressed_pair_elemImLi0ELb0EE5__getB8ne180100Ev, symObjAddr: 0x28C4, symBinAddr: 0x10000A1BC, symSize: 0x14 }
  - { offsetInCU: 0xFACE, offset: 0x24A1F, size: 0x8, addend: 0x0, symName: __ZNSt3__114__split_bufferIPP9MCTS_moveNS_9allocatorIS3_EEE19__destruct_at_beginB8ne180100EPS3_, symObjAddr: 0x28D8, symBinAddr: 0x10000A1D0, symSize: 0x2C }
  - { offsetInCU: 0xFB02, offset: 0x24A53, size: 0x8, addend: 0x0, symName: __ZNSt3__114__split_bufferIPP9MCTS_moveNS_9allocatorIS3_EEE19__destruct_at_beginEPS3_NS_17integral_constantIbLb1EEE, symObjAddr: 0x2904, symBinAddr: 0x10000A1FC, symSize: 0x20 }
  - { offsetInCU: 0xFB42, offset: 0x24A93, size: 0x8, addend: 0x0, symName: __ZNSt3__19allocatorIP9MCTS_moveE10deallocateB8ne180100EPS2_m, symObjAddr: 0x2924, symBinAddr: 0x10000A21C, symSize: 0x40 }
  - { offsetInCU: 0xFB84, offset: 0x24AD5, size: 0x8, addend: 0x0, symName: __ZNSt3__117__compressed_pairImNS_9allocatorIP9MCTS_moveEEE6secondB8ne180100Ev, symObjAddr: 0x29E0, symBinAddr: 0x10000A25C, symSize: 0x24 }
  - { offsetInCU: 0xFBAA, offset: 0x24AFB, size: 0x8, addend: 0x0, symName: __ZNSt3__122__compressed_pair_elemINS_9allocatorIP9MCTS_moveEELi1ELb1EE5__getB8ne180100Ev, symObjAddr: 0x2A04, symBinAddr: 0x10000A280, symSize: 0x14 }
  - { offsetInCU: 0xFBD0, offset: 0x24B21, size: 0x8, addend: 0x0, symName: __ZNSt3__114__split_bufferIPP9MCTS_moveNS_9allocatorIS3_EEED2Ev, symObjAddr: 0x2A18, symBinAddr: 0x10000A294, symSize: 0x8C }
  - { offsetInCU: 0xFBFC, offset: 0x24B4D, size: 0x8, addend: 0x0, symName: __ZNSt3__114__split_bufferIPP9MCTS_moveNS_9allocatorIS3_EEE5clearB8ne180100Ev, symObjAddr: 0x2AA4, symBinAddr: 0x10000A320, symSize: 0x28 }
  - { offsetInCU: 0xFC22, offset: 0x24B73, size: 0x8, addend: 0x0, symName: __ZNSt3__116allocator_traitsINS_9allocatorIPP9MCTS_moveEEE10deallocateB8ne180100ERS5_PS4_m, symObjAddr: 0x2ACC, symBinAddr: 0x10000A348, symSize: 0x34 }
  - { offsetInCU: 0xFC64, offset: 0x24BB5, size: 0x8, addend: 0x0, symName: __ZNSt3__114__split_bufferIPP9MCTS_moveNS_9allocatorIS3_EEE7__allocB8ne180100Ev, symObjAddr: 0x2B00, symBinAddr: 0x10000A37C, symSize: 0x28 }
  - { offsetInCU: 0xFC8A, offset: 0x24BDB, size: 0x8, addend: 0x0, symName: __ZNKSt3__114__split_bufferIPP9MCTS_moveNS_9allocatorIS3_EEE8capacityB8ne180100Ev, symObjAddr: 0x2B28, symBinAddr: 0x10000A3A4, symSize: 0x40 }
  - { offsetInCU: 0xFCB0, offset: 0x24C01, size: 0x8, addend: 0x0, symName: __ZNSt3__114__split_bufferIPP9MCTS_moveNS_9allocatorIS3_EEE17__destruct_at_endB8ne180100EPS3_, symObjAddr: 0x2B68, symBinAddr: 0x10000A3E4, symSize: 0x2C }
  - { offsetInCU: 0xFCE4, offset: 0x24C35, size: 0x8, addend: 0x0, symName: __ZNSt3__114__split_bufferIPP9MCTS_moveNS_9allocatorIS3_EEE17__destruct_at_endB8ne180100EPS3_NS_17integral_constantIbLb0EEE, symObjAddr: 0x2B94, symBinAddr: 0x10000A410, symSize: 0x80 }
  - { offsetInCU: 0xFD24, offset: 0x24C75, size: 0x8, addend: 0x0, symName: __ZNSt3__116allocator_traitsINS_9allocatorIPP9MCTS_moveEEE7destroyB8ne180100IS4_vEEvRS5_PT_, symObjAddr: 0x2C14, symBinAddr: 0x10000A490, symSize: 0x2C }
  - { offsetInCU: 0xFD61, offset: 0x24CB2, size: 0x8, addend: 0x0, symName: __ZNSt3__19allocatorIPP9MCTS_moveE7destroyB8ne180100EPS3_, symObjAddr: 0x2C54, symBinAddr: 0x10000A4D0, symSize: 0x14 }
  - { offsetInCU: 0xFD95, offset: 0x24CE6, size: 0x8, addend: 0x0, symName: __ZNSt3__19allocatorIPP9MCTS_moveE10deallocateB8ne180100EPS3_m, symObjAddr: 0x2C68, symBinAddr: 0x10000A4E4, symSize: 0x40 }
  - { offsetInCU: 0xFDD7, offset: 0x24D28, size: 0x8, addend: 0x0, symName: __ZNSt3__117__compressed_pairIPPP9MCTS_moveNS_9allocatorIS3_EEE6secondB8ne180100Ev, symObjAddr: 0x2CA8, symBinAddr: 0x10000A524, symSize: 0x24 }
  - { offsetInCU: 0xFDFD, offset: 0x24D4E, size: 0x8, addend: 0x0, symName: __ZNSt3__122__compressed_pair_elemINS_9allocatorIPP9MCTS_moveEELi1ELb1EE5__getB8ne180100Ev, symObjAddr: 0x2CCC, symBinAddr: 0x10000A548, symSize: 0x14 }
  - { offsetInCU: 0xFE23, offset: 0x24D74, size: 0x8, addend: 0x0, symName: __ZNKSt3__114__split_bufferIPP9MCTS_moveNS_9allocatorIS3_EEE9__end_capB8ne180100Ev, symObjAddr: 0x2CE0, symBinAddr: 0x10000A55C, symSize: 0x28 }
  - { offsetInCU: 0xFE49, offset: 0x24D9A, size: 0x8, addend: 0x0, symName: __ZNKSt3__117__compressed_pairIPPP9MCTS_moveNS_9allocatorIS3_EEE5firstB8ne180100Ev, symObjAddr: 0x2D08, symBinAddr: 0x10000A584, symSize: 0x24 }
  - { offsetInCU: 0xFE6F, offset: 0x24DC0, size: 0x8, addend: 0x0, symName: __ZNKSt3__122__compressed_pair_elemIPPP9MCTS_moveLi0ELb0EE5__getB8ne180100Ev, symObjAddr: 0x2D2C, symBinAddr: 0x10000A5A8, symSize: 0x14 }
  - { offsetInCU: 0xFE95, offset: 0x24DE6, size: 0x8, addend: 0x0, symName: __ZNKSt3__111__wrap_iterIPKhE4baseB8ne180100Ev, symObjAddr: 0x2D88, symBinAddr: 0x10000A604, symSize: 0x18 }
  - { offsetInCU: 0xFEBB, offset: 0x24E0C, size: 0x8, addend: 0x0, symName: __ZNKSt3__111__wrap_iterIPKNS_6vectorIhNS_9allocatorIhEEEEE4baseB8ne180100Ev, symObjAddr: 0x2DE8, symBinAddr: 0x10000A664, symSize: 0x18 }
  - { offsetInCU: 0xFEE1, offset: 0x24E32, size: 0x8, addend: 0x0, symName: __ZN16Ultimate_XO_moveD2Ev, symObjAddr: 0x2E00, symBinAddr: 0x10000A67C, symSize: 0x2C }
  - { offsetInCU: 0xFF0D, offset: 0x24E5E, size: 0x8, addend: 0x0, symName: __ZN9MCTS_moveD2Ev, symObjAddr: 0x2E2C, symBinAddr: 0x10000A6A8, symSize: 0x14 }
  - { offsetInCU: 0xFF41, offset: 0x24E92, size: 0x8, addend: 0x0, symName: __ZNSt3__16vectorIhNS_9allocatorIhEEEC2EmRKh, symObjAddr: 0x345C, symBinAddr: 0x10000A6BC, symSize: 0xDC }
  - { offsetInCU: 0xFFA5, offset: 0x24EF6, size: 0x8, addend: 0x0, symName: __ZNSt3__117__compressed_pairIPhNS_9allocatorIhEEEC1B8ne180100IDnNS_18__default_init_tagEEEOT_OT0_, symObjAddr: 0x3538, symBinAddr: 0x10000A798, symSize: 0x3C }
  - { offsetInCU: 0xFFFD, offset: 0x24F4E, size: 0x8, addend: 0x0, symName: __ZNSt3__16vectorIhNS_9allocatorIhEEE18__construct_at_endEmRKh, symObjAddr: 0x3694, symBinAddr: 0x10000A7D4, symSize: 0xD0 }
  - { offsetInCU: 0x1007F, offset: 0x24FD0, size: 0x8, addend: 0x0, symName: __ZNSt3__117__compressed_pairIPhNS_9allocatorIhEEEC2B8ne180100IDnNS_18__default_init_tagEEEOT_OT0_, symObjAddr: 0x37AC, symBinAddr: 0x10000A8A4, symSize: 0x40 }
  - { offsetInCU: 0x100D7, offset: 0x25028, size: 0x8, addend: 0x0, symName: __ZNSt3__122__compressed_pair_elemINS_9allocatorIhEELi1ELb1EEC2B8ne180100ENS_18__default_init_tagE, symObjAddr: 0x3808, symBinAddr: 0x10000A8E4, symSize: 0x2C }
  - { offsetInCU: 0x1010B, offset: 0x2505C, size: 0x8, addend: 0x0, symName: __ZNSt3__19allocatorIhEC2B8ne180100Ev, symObjAddr: 0x3834, symBinAddr: 0x10000A910, symSize: 0x2C }
  - { offsetInCU: 0x10135, offset: 0x25086, size: 0x8, addend: 0x0, symName: __ZNSt3__116__non_trivial_ifILb1ENS_9allocatorIhEEEC2B8ne180100Ev, symObjAddr: 0x3860, symBinAddr: 0x10000A93C, symSize: 0x14 }
  - { offsetInCU: 0x10182, offset: 0x250D3, size: 0x8, addend: 0x0, symName: __ZNSt3__116allocator_traitsINS_9allocatorIhEEE9constructB8ne180100IhJRKhEvEEvRS2_PT_DpOT0_, symObjAddr: 0x3DDC, symBinAddr: 0x10000A950, symSize: 0x34 }
  - { offsetInCU: 0x101D9, offset: 0x2512A, size: 0x8, addend: 0x0, symName: __ZNSt3__19allocatorIhE9constructB8ne180100IhJRKhEEEvPT_DpOT0_, symObjAddr: 0x3E94, symBinAddr: 0x10000A984, symSize: 0x28 }
  - { offsetInCU: 0x1022F, offset: 0x25180, size: 0x8, addend: 0x0, symName: __ZNSt3__16vectorINS0_IhNS_9allocatorIhEEEENS1_IS3_EEEC2EmRKS3_, symObjAddr: 0x420C, symBinAddr: 0x10000A9AC, symSize: 0xDC }
  - { offsetInCU: 0x1028E, offset: 0x251DF, size: 0x8, addend: 0x0, symName: __ZNSt3__117__compressed_pairIPNS_6vectorIhNS_9allocatorIhEEEENS2_IS4_EEEC1B8ne180100IDnNS_18__default_init_tagEEEOT_OT0_, symObjAddr: 0x42E8, symBinAddr: 0x10000AA88, symSize: 0x3C }
  - { offsetInCU: 0x102E6, offset: 0x25237, size: 0x8, addend: 0x0, symName: __ZNSt3__16vectorINS0_IhNS_9allocatorIhEEEENS1_IS3_EEE18__construct_at_endEmRKS3_, symObjAddr: 0x444C, symBinAddr: 0x10000AAC4, symSize: 0xD0 }
  - { offsetInCU: 0x10368, offset: 0x252B9, size: 0x8, addend: 0x0, symName: __ZNSt3__117__compressed_pairIPNS_6vectorIhNS_9allocatorIhEEEENS2_IS4_EEEC2B8ne180100IDnNS_18__default_init_tagEEEOT_OT0_, symObjAddr: 0x4564, symBinAddr: 0x10000AB94, symSize: 0x40 }
  - { offsetInCU: 0x103C0, offset: 0x25311, size: 0x8, addend: 0x0, symName: __ZNSt3__122__compressed_pair_elemINS_9allocatorINS_6vectorIhNS1_IhEEEEEELi1ELb1EEC2B8ne180100ENS_18__default_init_tagE, symObjAddr: 0x45C0, symBinAddr: 0x10000ABD4, symSize: 0x2C }
  - { offsetInCU: 0x103F4, offset: 0x25345, size: 0x8, addend: 0x0, symName: __ZNSt3__19allocatorINS_6vectorIhNS0_IhEEEEEC2B8ne180100Ev, symObjAddr: 0x45EC, symBinAddr: 0x10000AC00, symSize: 0x2C }
  - { offsetInCU: 0x1041E, offset: 0x2536F, size: 0x8, addend: 0x0, symName: __ZNSt3__116__non_trivial_ifILb1ENS_9allocatorINS_6vectorIhNS1_IhEEEEEEEC2B8ne180100Ev, symObjAddr: 0x4618, symBinAddr: 0x10000AC2C, symSize: 0x14 }
  - { offsetInCU: 0x1046B, offset: 0x253BC, size: 0x8, addend: 0x0, symName: __ZNSt3__116allocator_traitsINS_9allocatorINS_6vectorIhNS1_IhEEEEEEE9constructB8ne180100IS4_JRKS4_EvEEvRS5_PT_DpOT0_, symObjAddr: 0x4968, symBinAddr: 0x10000AC40, symSize: 0x34 }
  - { offsetInCU: 0x104C2, offset: 0x25413, size: 0x8, addend: 0x0, symName: __ZNSt3__19allocatorINS_6vectorIhNS0_IhEEEEE9constructB8ne180100IS3_JRKS3_EEEvPT_DpOT0_, symObjAddr: 0x4A28, symBinAddr: 0x10000AC74, symSize: 0x30 }
  - { offsetInCU: 0x1051D, offset: 0x2546E, size: 0x8, addend: 0x0, symName: __ZNSt3__16vectorINS0_INS0_IhNS_9allocatorIhEEEENS1_IS3_EEEENS1_IS5_EEEC2EmRKS5_, symObjAddr: 0x569C, symBinAddr: 0x10000ACA4, symSize: 0xDC }
  - { offsetInCU: 0x1057C, offset: 0x254CD, size: 0x8, addend: 0x0, symName: __ZNSt3__117__compressed_pairIPNS_6vectorINS1_IhNS_9allocatorIhEEEENS2_IS4_EEEENS2_IS6_EEEC1B8ne180100IDnNS_18__default_init_tagEEEOT_OT0_, symObjAddr: 0x5778, symBinAddr: 0x10000AD80, symSize: 0x3C }
  - { offsetInCU: 0x105D4, offset: 0x25525, size: 0x8, addend: 0x0, symName: __ZNSt3__16vectorINS0_INS0_IhNS_9allocatorIhEEEENS1_IS3_EEEENS1_IS5_EEE18__construct_at_endEmRKS5_, symObjAddr: 0x58DC, symBinAddr: 0x10000ADFC, symSize: 0xD0 }
  - { offsetInCU: 0x10656, offset: 0x255A7, size: 0x8, addend: 0x0, symName: __ZNSt3__128__exception_guard_exceptionsINS_6vectorINS1_INS1_IhNS_9allocatorIhEEEENS2_IS4_EEEENS2_IS6_EEE16__destroy_vectorEE10__completeB8ne180100Ev, symObjAddr: 0x59AC, symBinAddr: 0x10000AECC, symSize: 0x1C }
  - { offsetInCU: 0x1067C, offset: 0x255CD, size: 0x8, addend: 0x0, symName: __ZNSt3__128__exception_guard_exceptionsINS_6vectorINS1_INS1_IhNS_9allocatorIhEEEENS2_IS4_EEEENS2_IS6_EEE16__destroy_vectorEED1B8ne180100Ev, symObjAddr: 0x59C8, symBinAddr: 0x10000AEE8, symSize: 0x2C }
  - { offsetInCU: 0x106A6, offset: 0x255F7, size: 0x8, addend: 0x0, symName: __ZNSt3__117__compressed_pairIPNS_6vectorINS1_IhNS_9allocatorIhEEEENS2_IS4_EEEENS2_IS6_EEEC2B8ne180100IDnNS_18__default_init_tagEEEOT_OT0_, symObjAddr: 0x59F4, symBinAddr: 0x10000AF14, symSize: 0x40 }
  - { offsetInCU: 0x106FE, offset: 0x2564F, size: 0x8, addend: 0x0, symName: __ZNSt3__122__compressed_pair_elemIPNS_6vectorINS1_IhNS_9allocatorIhEEEENS2_IS4_EEEELi0ELb0EEC2B8ne180100IDnvEEOT_, symObjAddr: 0x5A34, symBinAddr: 0x10000AF54, symSize: 0x1C }
  - { offsetInCU: 0x10740, offset: 0x25691, size: 0x8, addend: 0x0, symName: __ZNSt3__122__compressed_pair_elemINS_9allocatorINS_6vectorINS2_IhNS1_IhEEEENS1_IS4_EEEEEELi1ELb1EEC2B8ne180100ENS_18__default_init_tagE, symObjAddr: 0x5A50, symBinAddr: 0x10000AF70, symSize: 0x2C }
  - { offsetInCU: 0x10774, offset: 0x256C5, size: 0x8, addend: 0x0, symName: __ZNSt3__19allocatorINS_6vectorINS1_IhNS0_IhEEEENS0_IS3_EEEEEC2B8ne180100Ev, symObjAddr: 0x5A7C, symBinAddr: 0x10000AF9C, symSize: 0x2C }
  - { offsetInCU: 0x1079E, offset: 0x256EF, size: 0x8, addend: 0x0, symName: __ZNSt3__116__non_trivial_ifILb1ENS_9allocatorINS_6vectorINS2_IhNS1_IhEEEENS1_IS4_EEEEEEEC2B8ne180100Ev, symObjAddr: 0x5AA8, symBinAddr: 0x10000AFC8, symSize: 0x14 }
  - { offsetInCU: 0x107C8, offset: 0x25719, size: 0x8, addend: 0x0, symName: __ZNSt3__128__exception_guard_exceptionsINS_6vectorINS1_INS1_IhNS_9allocatorIhEEEENS2_IS4_EEEENS2_IS6_EEE16__destroy_vectorEEC1B8ne180100ES9_, symObjAddr: 0x5ABC, symBinAddr: 0x10000AFDC, symSize: 0x34 }
  - { offsetInCU: 0x10800, offset: 0x25751, size: 0x8, addend: 0x0, symName: __ZNSt3__128__exception_guard_exceptionsINS_6vectorINS1_INS1_IhNS_9allocatorIhEEEENS2_IS4_EEEENS2_IS6_EEE16__destroy_vectorEEC2B8ne180100ES9_, symObjAddr: 0x5AF0, symBinAddr: 0x10000B010, symSize: 0x24 }
  - { offsetInCU: 0x1085B, offset: 0x257AC, size: 0x8, addend: 0x0, symName: __ZNSt3__116allocator_traitsINS_9allocatorINS_6vectorINS2_IhNS1_IhEEEENS1_IS4_EEEEEEE9constructB8ne180100IS6_JRKS6_EvEEvRS7_PT_DpOT0_, symObjAddr: 0x5DF8, symBinAddr: 0x10000B034, symSize: 0x34 }
  - { offsetInCU: 0x108B2, offset: 0x25803, size: 0x8, addend: 0x0, symName: __ZNSt3__19allocatorINS_6vectorINS1_IhNS0_IhEEEENS0_IS3_EEEEE9constructB8ne180100IS5_JRKS5_EEEvPT_DpOT0_, symObjAddr: 0x5EB8, symBinAddr: 0x10000B068, symSize: 0x30 }
  - { offsetInCU: 0x10908, offset: 0x25859, size: 0x8, addend: 0x0, symName: __ZNSt3__128__exception_guard_exceptionsINS_6vectorINS1_INS1_IhNS_9allocatorIhEEEENS2_IS4_EEEENS2_IS6_EEE16__destroy_vectorEED2B8ne180100Ev, symObjAddr: 0x5F08, symBinAddr: 0x10000B098, symSize: 0x50 }
  - { offsetInCU: 0x10932, offset: 0x25883, size: 0x8, addend: 0x0, symName: __ZNSt3__16vectorItNS_9allocatorItEEEC2EmRKt, symObjAddr: 0x6218, symBinAddr: 0x10000B0E8, symSize: 0xDC }
  - { offsetInCU: 0x10991, offset: 0x258E2, size: 0x8, addend: 0x0, symName: __ZNSt3__117__compressed_pairIPtNS_9allocatorItEEEC1B8ne180100IDnNS_18__default_init_tagEEEOT_OT0_, symObjAddr: 0x62F4, symBinAddr: 0x10000B1C4, symSize: 0x3C }
  - { offsetInCU: 0x109E9, offset: 0x2593A, size: 0x8, addend: 0x0, symName: __ZNSt3__16vectorItNS_9allocatorItEEE18__construct_at_endEmRKt, symObjAddr: 0x641C, symBinAddr: 0x10000B240, symSize: 0xD0 }
  - { offsetInCU: 0x10A6B, offset: 0x259BC, size: 0x8, addend: 0x0, symName: __ZNSt3__128__exception_guard_exceptionsINS_6vectorItNS_9allocatorItEEE16__destroy_vectorEE10__completeB8ne180100Ev, symObjAddr: 0x64EC, symBinAddr: 0x10000B310, symSize: 0x1C }
  - { offsetInCU: 0x10A91, offset: 0x259E2, size: 0x8, addend: 0x0, symName: __ZNSt3__128__exception_guard_exceptionsINS_6vectorItNS_9allocatorItEEE16__destroy_vectorEED1B8ne180100Ev, symObjAddr: 0x6508, symBinAddr: 0x10000B32C, symSize: 0x2C }
  - { offsetInCU: 0x10ABB, offset: 0x25A0C, size: 0x8, addend: 0x0, symName: __ZNSt3__117__compressed_pairIPtNS_9allocatorItEEEC2B8ne180100IDnNS_18__default_init_tagEEEOT_OT0_, symObjAddr: 0x6534, symBinAddr: 0x10000B358, symSize: 0x40 }
  - { offsetInCU: 0x10B13, offset: 0x25A64, size: 0x8, addend: 0x0, symName: __ZNSt3__122__compressed_pair_elemIPtLi0ELb0EEC2B8ne180100IDnvEEOT_, symObjAddr: 0x6574, symBinAddr: 0x10000B398, symSize: 0x1C }
  - { offsetInCU: 0x10B55, offset: 0x25AA6, size: 0x8, addend: 0x0, symName: __ZNSt3__122__compressed_pair_elemINS_9allocatorItEELi1ELb1EEC2B8ne180100ENS_18__default_init_tagE, symObjAddr: 0x6590, symBinAddr: 0x10000B3B4, symSize: 0x2C }
  - { offsetInCU: 0x10B89, offset: 0x25ADA, size: 0x8, addend: 0x0, symName: __ZNSt3__19allocatorItEC2B8ne180100Ev, symObjAddr: 0x65BC, symBinAddr: 0x10000B3E0, symSize: 0x2C }
  - { offsetInCU: 0x10BB3, offset: 0x25B04, size: 0x8, addend: 0x0, symName: __ZNSt3__116__non_trivial_ifILb1ENS_9allocatorItEEEC2B8ne180100Ev, symObjAddr: 0x65E8, symBinAddr: 0x10000B40C, symSize: 0x14 }
  - { offsetInCU: 0x10BDD, offset: 0x25B2E, size: 0x8, addend: 0x0, symName: __ZNSt3__128__exception_guard_exceptionsINS_6vectorItNS_9allocatorItEEE16__destroy_vectorEEC1B8ne180100ES5_, symObjAddr: 0x65FC, symBinAddr: 0x10000B420, symSize: 0x34 }
  - { offsetInCU: 0x10C15, offset: 0x25B66, size: 0x8, addend: 0x0, symName: __ZNSt3__128__exception_guard_exceptionsINS_6vectorItNS_9allocatorItEEE16__destroy_vectorEEC2B8ne180100ES5_, symObjAddr: 0x6630, symBinAddr: 0x10000B454, symSize: 0x24 }
  - { offsetInCU: 0x10C70, offset: 0x25BC1, size: 0x8, addend: 0x0, symName: __ZNSt3__116allocator_traitsINS_9allocatorItEEE9constructB8ne180100ItJRKtEvEEvRS2_PT_DpOT0_, symObjAddr: 0x68B0, symBinAddr: 0x10000B478, symSize: 0x34 }
  - { offsetInCU: 0x10CC7, offset: 0x25C18, size: 0x8, addend: 0x0, symName: __ZNSt3__19allocatorItE9constructB8ne180100ItJRKtEEEvPT_DpOT0_, symObjAddr: 0x6954, symBinAddr: 0x10000B4AC, symSize: 0x28 }
  - { offsetInCU: 0x10D1D, offset: 0x25C6E, size: 0x8, addend: 0x0, symName: __ZNSt3__128__exception_guard_exceptionsINS_6vectorItNS_9allocatorItEEE16__destroy_vectorEED2B8ne180100Ev, symObjAddr: 0x699C, symBinAddr: 0x10000B4D4, symSize: 0x48 }
  - { offsetInCU: 0x10D47, offset: 0x25C98, size: 0x8, addend: 0x0, symName: __ZNSt3__16vectorINS0_INS0_IhNS_9allocatorIhEEEENS1_IS3_EEEENS1_IS5_EEEC2ERKS7_, symObjAddr: 0x6A24, symBinAddr: 0x10000B51C, symSize: 0x94 }
  - { offsetInCU: 0x10D82, offset: 0x25CD3, size: 0x8, addend: 0x0, symName: __ZNSt3__116allocator_traitsINS_9allocatorINS_6vectorINS2_IhNS1_IhEEEENS1_IS4_EEEEEEE37select_on_container_copy_constructionB8ne180100IS7_vvEES7_RKS7_, symObjAddr: 0x6AB8, symBinAddr: 0x10000B5B0, symSize: 0x10 }
  - { offsetInCU: 0x10DB6, offset: 0x25D07, size: 0x8, addend: 0x0, symName: __ZNSt3__117__compressed_pairIPNS_6vectorINS1_IhNS_9allocatorIhEEEENS2_IS4_EEEENS2_IS6_EEEC1B8ne180100IDnS8_EEOT_OT0_, symObjAddr: 0x6AC8, symBinAddr: 0x10000B5C0, symSize: 0x3C }
  - { offsetInCU: 0x10E0E, offset: 0x25D5F, size: 0x8, addend: 0x0, symName: __ZNSt3__16vectorINS0_INS0_IhNS_9allocatorIhEEEENS1_IS3_EEEENS1_IS5_EEE16__init_with_sizeB8ne180100IPS5_S9_EEvT_T0_m, symObjAddr: 0x6B04, symBinAddr: 0x10000B5FC, symSize: 0xB8 }
  - { offsetInCU: 0x10E82, offset: 0x25DD3, size: 0x8, addend: 0x0, symName: __ZNSt3__117__compressed_pairIPNS_6vectorINS1_IhNS_9allocatorIhEEEENS2_IS4_EEEENS2_IS6_EEEC2B8ne180100IDnS8_EEOT_OT0_, symObjAddr: 0x6BE4, symBinAddr: 0x10000B6B4, symSize: 0x44 }
  - { offsetInCU: 0x10EDA, offset: 0x25E2B, size: 0x8, addend: 0x0, symName: __ZNSt3__122__compressed_pair_elemINS_9allocatorINS_6vectorINS2_IhNS1_IhEEEENS1_IS4_EEEEEELi1ELb1EEC2B8ne180100IS7_vEEOT_, symObjAddr: 0x6C28, symBinAddr: 0x10000B6F8, symSize: 0x18 }
  - { offsetInCU: 0x10F21, offset: 0x25E72, size: 0x8, addend: 0x0, symName: __ZNSt3__16vectorItNS_9allocatorItEEEC2ERKS3_, symObjAddr: 0x7F2C, symBinAddr: 0x10000B710, symSize: 0x94 }
  - { offsetInCU: 0x10F5C, offset: 0x25EAD, size: 0x8, addend: 0x0, symName: __ZNSt3__116allocator_traitsINS_9allocatorItEEE37select_on_container_copy_constructionB8ne180100IS2_vvEES2_RKS2_, symObjAddr: 0x7FC0, symBinAddr: 0x10000B7A4, symSize: 0x10 }
  - { offsetInCU: 0x10F90, offset: 0x25EE1, size: 0x8, addend: 0x0, symName: __ZNSt3__117__compressed_pairIPtNS_9allocatorItEEEC1B8ne180100IDnS3_EEOT_OT0_, symObjAddr: 0x7FD0, symBinAddr: 0x10000B7B4, symSize: 0x3C }
  - { offsetInCU: 0x10FE8, offset: 0x25F39, size: 0x8, addend: 0x0, symName: __ZNSt3__16vectorItNS_9allocatorItEEE16__init_with_sizeB8ne180100IPtS5_EEvT_T0_m, symObjAddr: 0x800C, symBinAddr: 0x10000B7F0, symSize: 0xB8 }
  - { offsetInCU: 0x1105C, offset: 0x25FAD, size: 0x8, addend: 0x0, symName: __ZNSt3__117__compressed_pairIPtNS_9allocatorItEEEC2B8ne180100IDnS3_EEOT_OT0_, symObjAddr: 0x80EC, symBinAddr: 0x10000B8A8, symSize: 0x44 }
  - { offsetInCU: 0x110B4, offset: 0x26005, size: 0x8, addend: 0x0, symName: __ZNSt3__122__compressed_pair_elemINS_9allocatorItEELi1ELb1EEC2B8ne180100IS2_vEEOT_, symObjAddr: 0x8130, symBinAddr: 0x10000B8EC, symSize: 0x18 }
  - { offsetInCU: 0x11114, offset: 0x26065, size: 0x8, addend: 0x0, symName: __ZNSt3__15queueIP9MCTS_moveNS_5dequeIS2_NS_9allocatorIS2_EEEEEC2B8ne180100Ev, symObjAddr: 0x9174, symBinAddr: 0x10000B904, symSize: 0x2C }
  - { offsetInCU: 0x1113E, offset: 0x2608F, size: 0x8, addend: 0x0, symName: __ZNSt3__15dequeIP9MCTS_moveNS_9allocatorIS2_EEEC1B8ne180100Ev, symObjAddr: 0x91A0, symBinAddr: 0x10000B930, symSize: 0x2C }
  - { offsetInCU: 0x11168, offset: 0x260B9, size: 0x8, addend: 0x0, symName: __ZNSt3__15dequeIP9MCTS_moveNS_9allocatorIS2_EEEC2B8ne180100Ev, symObjAddr: 0x91CC, symBinAddr: 0x10000B95C, symSize: 0x5C }
  - { offsetInCU: 0x11192, offset: 0x260E3, size: 0x8, addend: 0x0, symName: __ZNSt3__114__split_bufferIPP9MCTS_moveNS_9allocatorIS3_EEEC1B8ne180100Ev, symObjAddr: 0x9228, symBinAddr: 0x10000B9B8, symSize: 0x2C }
  - { offsetInCU: 0x111C1, offset: 0x26112, size: 0x8, addend: 0x0, symName: __ZNSt3__117__compressed_pairImNS_9allocatorIP9MCTS_moveEEEC1B8ne180100IiNS_18__default_init_tagEEEOT_OT0_, symObjAddr: 0x9254, symBinAddr: 0x10000B9E4, symSize: 0x3C }
  - { offsetInCU: 0x11219, offset: 0x2616A, size: 0x8, addend: 0x0, symName: __ZNSt3__114__split_bufferIPP9MCTS_moveNS_9allocatorIS3_EEEC2B8ne180100Ev, symObjAddr: 0x9290, symBinAddr: 0x10000BA20, symSize: 0x50 }
  - { offsetInCU: 0x11243, offset: 0x26194, size: 0x8, addend: 0x0, symName: __ZNSt3__117__compressed_pairIPPP9MCTS_moveNS_9allocatorIS3_EEEC1B8ne180100IDnNS_18__default_init_tagEEEOT_OT0_, symObjAddr: 0x92E0, symBinAddr: 0x10000BA70, symSize: 0x3C }
  - { offsetInCU: 0x1129B, offset: 0x261EC, size: 0x8, addend: 0x0, symName: __ZNSt3__117__compressed_pairIPPP9MCTS_moveNS_9allocatorIS3_EEEC2B8ne180100IDnNS_18__default_init_tagEEEOT_OT0_, symObjAddr: 0x931C, symBinAddr: 0x10000BAAC, symSize: 0x40 }
  - { offsetInCU: 0x112F3, offset: 0x26244, size: 0x8, addend: 0x0, symName: __ZNSt3__122__compressed_pair_elemIPPP9MCTS_moveLi0ELb0EEC2B8ne180100IDnvEEOT_, symObjAddr: 0x935C, symBinAddr: 0x10000BAEC, symSize: 0x1C }
  - { offsetInCU: 0x11335, offset: 0x26286, size: 0x8, addend: 0x0, symName: __ZNSt3__122__compressed_pair_elemINS_9allocatorIPP9MCTS_moveEELi1ELb1EEC2B8ne180100ENS_18__default_init_tagE, symObjAddr: 0x9378, symBinAddr: 0x10000BB08, symSize: 0x2C }
  - { offsetInCU: 0x11369, offset: 0x262BA, size: 0x8, addend: 0x0, symName: __ZNSt3__19allocatorIPP9MCTS_moveEC2B8ne180100Ev, symObjAddr: 0x93A4, symBinAddr: 0x10000BB34, symSize: 0x2C }
  - { offsetInCU: 0x11393, offset: 0x262E4, size: 0x8, addend: 0x0, symName: __ZNSt3__116__non_trivial_ifILb1ENS_9allocatorIPP9MCTS_moveEEEC2B8ne180100Ev, symObjAddr: 0x93D0, symBinAddr: 0x10000BB60, symSize: 0x14 }
  - { offsetInCU: 0x113BD, offset: 0x2630E, size: 0x8, addend: 0x0, symName: __ZNSt3__117__compressed_pairImNS_9allocatorIP9MCTS_moveEEEC2B8ne180100IiNS_18__default_init_tagEEEOT_OT0_, symObjAddr: 0x93E4, symBinAddr: 0x10000BB74, symSize: 0x40 }
  - { offsetInCU: 0x11415, offset: 0x26366, size: 0x8, addend: 0x0, symName: __ZNSt3__122__compressed_pair_elemImLi0ELb0EEC2B8ne180100IivEEOT_, symObjAddr: 0x9424, symBinAddr: 0x10000BBB4, symSize: 0x24 }
  - { offsetInCU: 0x11457, offset: 0x263A8, size: 0x8, addend: 0x0, symName: __ZNSt3__122__compressed_pair_elemINS_9allocatorIP9MCTS_moveEELi1ELb1EEC2B8ne180100ENS_18__default_init_tagE, symObjAddr: 0x9448, symBinAddr: 0x10000BBD8, symSize: 0x2C }
  - { offsetInCU: 0x1148B, offset: 0x263DC, size: 0x8, addend: 0x0, symName: __ZNSt3__19allocatorIP9MCTS_moveEC2B8ne180100Ev, symObjAddr: 0x9474, symBinAddr: 0x10000BC04, symSize: 0x2C }
  - { offsetInCU: 0x114B5, offset: 0x26406, size: 0x8, addend: 0x0, symName: __ZNSt3__116__non_trivial_ifILb1ENS_9allocatorIP9MCTS_moveEEEC2B8ne180100Ev, symObjAddr: 0x94A0, symBinAddr: 0x10000BC30, symSize: 0x14 }
  - { offsetInCU: 0x114DF, offset: 0x26430, size: 0x8, addend: 0x0, symName: __ZNSt3__15dequeIP9MCTS_moveNS_9allocatorIS2_EEE9push_backEOS2_, symObjAddr: 0x94B4, symBinAddr: 0x10000BC44, symSize: 0xAC }
  - { offsetInCU: 0x11525, offset: 0x26476, size: 0x8, addend: 0x0, symName: __ZNKSt3__15dequeIP9MCTS_moveNS_9allocatorIS2_EEE12__back_spareB8ne180100Ev, symObjAddr: 0x9560, symBinAddr: 0x10000BCF0, symSize: 0x54 }
  - { offsetInCU: 0x1154B, offset: 0x2649C, size: 0x8, addend: 0x0, symName: __ZNSt3__15dequeIP9MCTS_moveNS_9allocatorIS2_EEE19__add_back_capacityEv, symObjAddr: 0x95B4, symBinAddr: 0x10000BD44, symSize: 0x34C }
  - { offsetInCU: 0x11603, offset: 0x26554, size: 0x8, addend: 0x0, symName: __ZNKSt3__15dequeIP9MCTS_moveNS_9allocatorIS2_EEE24__annotate_increase_backB8ne180100Em, symObjAddr: 0x9900, symBinAddr: 0x10000C090, symSize: 0x14 }
  - { offsetInCU: 0x1163D, offset: 0x2658E, size: 0x8, addend: 0x0, symName: __ZNSt3__116allocator_traitsINS_9allocatorIP9MCTS_moveEEE9constructB8ne180100IS3_JS3_EvEEvRS4_PT_DpOT0_, symObjAddr: 0x9914, symBinAddr: 0x10000C0A4, symSize: 0x34 }
  - { offsetInCU: 0x11694, offset: 0x265E5, size: 0x8, addend: 0x0, symName: __ZNKSt3__15dequeIP9MCTS_moveNS_9allocatorIS2_EEE10__capacityB8ne180100Ev, symObjAddr: 0x9948, symBinAddr: 0x10000C0D8, symSize: 0x60 }
  - { offsetInCU: 0x116BA, offset: 0x2660B, size: 0x8, addend: 0x0, symName: __ZNKSt3__15dequeIP9MCTS_moveNS_9allocatorIS2_EEE13__front_spareB8ne180100Ev, symObjAddr: 0x99A8, symBinAddr: 0x10000C138, symSize: 0x18 }
  - { offsetInCU: 0x116E0, offset: 0x26631, size: 0x8, addend: 0x0, symName: __ZNSt3__114__split_bufferIPP9MCTS_moveNS_9allocatorIS3_EEE9push_backB8ne180100ERKS3_, symObjAddr: 0x99C0, symBinAddr: 0x10000C150, symSize: 0x260 }
  - { offsetInCU: 0x11759, offset: 0x266AA, size: 0x8, addend: 0x0, symName: __ZNKSt3__114__split_bufferIPP9MCTS_moveNS_9allocatorIS3_EEE12__back_spareB8ne180100Ev, symObjAddr: 0x9C20, symBinAddr: 0x10000C3B0, symSize: 0x40 }
  - { offsetInCU: 0x1177F, offset: 0x266D0, size: 0x8, addend: 0x0, symName: __ZNSt3__114__split_bufferIPP9MCTS_moveNS_9allocatorIS3_EEE9push_backEOS3_, symObjAddr: 0x9C60, symBinAddr: 0x10000C3F0, symSize: 0x260 }
  - { offsetInCU: 0x117F8, offset: 0x26749, size: 0x8, addend: 0x0, symName: __ZNSt3__116allocator_traitsINS_9allocatorIP9MCTS_moveEEE8allocateB8ne180100ERS4_m, symObjAddr: 0x9EC0, symBinAddr: 0x10000C650, symSize: 0x2C }
  - { offsetInCU: 0x1182B, offset: 0x2677C, size: 0x8, addend: 0x0, symName: __ZNSt3__114__split_bufferIPP9MCTS_moveNS_9allocatorIS3_EEE10push_frontEOS3_, symObjAddr: 0x9EEC, symBinAddr: 0x10000C67C, symSize: 0x25C }
  - { offsetInCU: 0x118A4, offset: 0x267F5, size: 0x8, addend: 0x0, symName: __ZNKSt3__15dequeIP9MCTS_moveNS_9allocatorIS2_EEE22__annotate_whole_blockB8ne180100EmNS5_22__asan_annotation_typeE, symObjAddr: 0xA148, symBinAddr: 0x10000C8D8, symSize: 0x18 }
  - { offsetInCU: 0x118E8, offset: 0x26839, size: 0x8, addend: 0x0, symName: __ZNSt3__114__split_bufferIPP9MCTS_moveRNS_9allocatorIS3_EEEC1EmmS6_, symObjAddr: 0xA18C, symBinAddr: 0x10000C8F0, symSize: 0x44 }
  - { offsetInCU: 0x11943, offset: 0x26894, size: 0x8, addend: 0x0, symName: __ZNSt3__122__allocator_destructorINS_9allocatorIP9MCTS_moveEEEC1B8ne180100ERS4_m, symObjAddr: 0xA1D0, symBinAddr: 0x10000C934, symSize: 0x3C }
  - { offsetInCU: 0x11A06, offset: 0x26957, size: 0x8, addend: 0x0, symName: __ZNSt3__110unique_ptrIPP9MCTS_moveNS_22__allocator_destructorINS_9allocatorIS2_EEEEEC1B8ne180100ILb1EvEES3_NS_16__dependent_typeINS_27__unique_ptr_deleter_sfinaeIS7_EEXT_EE20__good_rval_ref_typeE, symObjAddr: 0xA20C, symBinAddr: 0x10000C970, symSize: 0x3C }
  - { offsetInCU: 0x11A57, offset: 0x269A8, size: 0x8, addend: 0x0, symName: __ZNSt3__114__split_bufferIPP9MCTS_moveRNS_9allocatorIS3_EEE9push_backEOS3_, symObjAddr: 0xA248, symBinAddr: 0x10000C9AC, symSize: 0x260 }
  - { offsetInCU: 0x11AD0, offset: 0x26A21, size: 0x8, addend: 0x0, symName: __ZNKSt3__110unique_ptrIPP9MCTS_moveNS_22__allocator_destructorINS_9allocatorIS2_EEEEE3getB8ne180100Ev, symObjAddr: 0xA4A8, symBinAddr: 0x10000CC0C, symSize: 0x28 }
  - { offsetInCU: 0x11AF6, offset: 0x26A47, size: 0x8, addend: 0x0, symName: __ZNSt3__110unique_ptrIPP9MCTS_moveNS_22__allocator_destructorINS_9allocatorIS2_EEEEE7releaseB8ne180100Ev, symObjAddr: 0xA4D0, symBinAddr: 0x10000CC34, symSize: 0x44 }
  - { offsetInCU: 0x11B2B, offset: 0x26A7C, size: 0x8, addend: 0x0, symName: __ZNSt3__114__split_bufferIPP9MCTS_moveRNS_9allocatorIS3_EEE10push_frontERKS3_, symObjAddr: 0xA514, symBinAddr: 0x10000CC78, symSize: 0x25C }
  - { offsetInCU: 0x11BA4, offset: 0x26AF5, size: 0x8, addend: 0x0, symName: __ZNSt3__114__split_bufferIPP9MCTS_moveNS_9allocatorIS3_EEE9__end_capB8ne180100Ev, symObjAddr: 0xA7AC, symBinAddr: 0x10000CF10, symSize: 0x28 }
  - { offsetInCU: 0x11BCA, offset: 0x26B1B, size: 0x8, addend: 0x0, symName: __ZNSt3__114__split_bufferIPP9MCTS_moveRNS_9allocatorIS3_EEE9__end_capB8ne180100Ev, symObjAddr: 0xA7D4, symBinAddr: 0x10000CF38, symSize: 0x28 }
  - { offsetInCU: 0x11BF0, offset: 0x26B41, size: 0x8, addend: 0x0, symName: __ZNSt3__110unique_ptrIPP9MCTS_moveNS_22__allocator_destructorINS_9allocatorIS2_EEEEED1B8ne180100Ev, symObjAddr: 0xA7FC, symBinAddr: 0x10000CF60, symSize: 0x2C }
  - { offsetInCU: 0x11C1A, offset: 0x26B6B, size: 0x8, addend: 0x0, symName: __ZNSt3__114__split_bufferIPP9MCTS_moveRNS_9allocatorIS3_EEED1Ev, symObjAddr: 0xA828, symBinAddr: 0x10000CF8C, symSize: 0x2C }
  - { offsetInCU: 0x11C46, offset: 0x26B97, size: 0x8, addend: 0x0, symName: __ZNSt3__114__split_bufferIPP9MCTS_moveRNS_9allocatorIS3_EEE18__construct_at_endINS_13move_iteratorIPS3_EELi0EEEvT_SC_, symObjAddr: 0xA894, symBinAddr: 0x10000CFF8, symSize: 0x60 }
  - { offsetInCU: 0x11C99, offset: 0x26BEA, size: 0x8, addend: 0x0, symName: __ZNSt3__113move_iteratorIPPP9MCTS_moveEC1B8ne180100ES4_, symObjAddr: 0xA8F4, symBinAddr: 0x10000D058, symSize: 0x34 }
  - { offsetInCU: 0x11CD1, offset: 0x26C22, size: 0x8, addend: 0x0, symName: __ZNSt3__116allocator_traitsINS_9allocatorIPP9MCTS_moveEEE9constructB8ne180100IS4_JRKS4_EvEEvRS5_PT_DpOT0_, symObjAddr: 0xA928, symBinAddr: 0x10000D08C, symSize: 0x34 }
  - { offsetInCU: 0x11D4B, offset: 0x26C9C, size: 0x8, addend: 0x0, symName: __ZNKSt3__114__move_trivialclB8ne180100IPP9MCTS_moveS4_Li0EEENS_4pairIPT_PT0_EES7_S7_S9_, symObjAddr: 0xAAF8, symBinAddr: 0x10000D25C, symSize: 0x48 }
  - { offsetInCU: 0x11DB8, offset: 0x26D09, size: 0x8, addend: 0x0, symName: __ZNSt3__14pairIPPP9MCTS_moveS4_EC1B8ne180100IRS4_S4_Li0EEEOT_OT0_, symObjAddr: 0xAD20, symBinAddr: 0x10000D484, symSize: 0x3C }
  - { offsetInCU: 0x11E16, offset: 0x26D67, size: 0x8, addend: 0x0, symName: __ZNSt3__14pairIPPP9MCTS_moveS4_EC2B8ne180100IRS4_S4_Li0EEEOT_OT0_, symObjAddr: 0xAD5C, symBinAddr: 0x10000D4C0, symSize: 0x34 }
  - { offsetInCU: 0x11E74, offset: 0x26DC5, size: 0x8, addend: 0x0, symName: __ZNSt3__118__unwrap_iter_implIPPP9MCTS_moveLb1EE8__unwrapB8ne180100ES4_, symObjAddr: 0xAD90, symBinAddr: 0x10000D4F4, symSize: 0x24 }
  - { offsetInCU: 0x11E97, offset: 0x26DE8, size: 0x8, addend: 0x0, symName: __ZNSt3__14pairIPPP9MCTS_moveS4_EC1B8ne180100IS4_S4_Li0EEEOT_OT0_, symObjAddr: 0xADB4, symBinAddr: 0x10000D518, symSize: 0x3C }
  - { offsetInCU: 0x11EF5, offset: 0x26E46, size: 0x8, addend: 0x0, symName: __ZNSt3__14pairIPPP9MCTS_moveS4_EC2B8ne180100IS4_S4_Li0EEEOT_OT0_, symObjAddr: 0xADF0, symBinAddr: 0x10000D554, symSize: 0x34 }
  - { offsetInCU: 0x11F53, offset: 0x26EA4, size: 0x8, addend: 0x0, symName: __ZNSt3__118__unwrap_iter_implIPPP9MCTS_moveLb1EE8__rewrapB8ne180100ES4_S4_, symObjAddr: 0xAE24, symBinAddr: 0x10000D588, symSize: 0x50 }
  - { offsetInCU: 0x11F84, offset: 0x26ED5, size: 0x8, addend: 0x0, symName: __ZNSt3__114__split_bufferIPP9MCTS_moveRNS_9allocatorIS3_EEE28__construct_at_end_with_sizeINS_13move_iteratorIPS3_EEEEvT_m, symObjAddr: 0xAE74, symBinAddr: 0x10000D5D8, symSize: 0xDC }
  - { offsetInCU: 0x11FEA, offset: 0x26F3B, size: 0x8, addend: 0x0, symName: __ZNSt3__114__split_bufferIPP9MCTS_moveRNS_9allocatorIS3_EEE21_ConstructTransactionC1B8ne180100EPPS3_m, symObjAddr: 0xAF8C, symBinAddr: 0x10000D6F0, symSize: 0x3C }
  - { offsetInCU: 0x12030, offset: 0x26F81, size: 0x8, addend: 0x0, symName: __ZNSt3__116allocator_traitsINS_9allocatorIPP9MCTS_moveEEE9constructB8ne180100IS4_JS4_EvEEvRS5_PT_DpOT0_, symObjAddr: 0xAFC8, symBinAddr: 0x10000D72C, symSize: 0x34 }
  - { offsetInCU: 0x12087, offset: 0x26FD8, size: 0x8, addend: 0x0, symName: __ZNSt3__114__split_bufferIPP9MCTS_moveRNS_9allocatorIS3_EEE7__allocB8ne180100Ev, symObjAddr: 0xAFFC, symBinAddr: 0x10000D760, symSize: 0x28 }
  - { offsetInCU: 0x120AD, offset: 0x26FFE, size: 0x8, addend: 0x0, symName: __ZNKSt3__113move_iteratorIPPP9MCTS_moveEdeB8ne180100Ev, symObjAddr: 0xB024, symBinAddr: 0x10000D788, symSize: 0x18 }
  - { offsetInCU: 0x120D3, offset: 0x27024, size: 0x8, addend: 0x0, symName: __ZNSt3__113move_iteratorIPPP9MCTS_moveEppB8ne180100Ev, symObjAddr: 0xB03C, symBinAddr: 0x10000D7A0, symSize: 0x20 }
  - { offsetInCU: 0x120F9, offset: 0x2704A, size: 0x8, addend: 0x0, symName: __ZNSt3__114__split_bufferIPP9MCTS_moveRNS_9allocatorIS3_EEE21_ConstructTransactionD1B8ne180100Ev, symObjAddr: 0xB05C, symBinAddr: 0x10000D7C0, symSize: 0x2C }
  - { offsetInCU: 0x12123, offset: 0x27074, size: 0x8, addend: 0x0, symName: __ZNSt3__114__split_bufferIPP9MCTS_moveRNS_9allocatorIS3_EEE21_ConstructTransactionC2B8ne180100EPPS3_m, symObjAddr: 0xB088, symBinAddr: 0x10000D7EC, symSize: 0x44 }
  - { offsetInCU: 0x12169, offset: 0x270BA, size: 0x8, addend: 0x0, symName: __ZNSt3__19allocatorIPP9MCTS_moveE9constructB8ne180100IS3_JS3_EEEvPT_DpOT0_, symObjAddr: 0xB0CC, symBinAddr: 0x10000D830, symSize: 0x28 }
  - { offsetInCU: 0x121BF, offset: 0x27110, size: 0x8, addend: 0x0, symName: __ZNSt3__117__compressed_pairIPPP9MCTS_moveRNS_9allocatorIS3_EEE6secondB8ne180100Ev, symObjAddr: 0xB0F4, symBinAddr: 0x10000D858, symSize: 0x28 }
  - { offsetInCU: 0x121E5, offset: 0x27136, size: 0x8, addend: 0x0, symName: __ZNSt3__122__compressed_pair_elemIRNS_9allocatorIPP9MCTS_moveEELi1ELb0EE5__getB8ne180100Ev, symObjAddr: 0xB11C, symBinAddr: 0x10000D880, symSize: 0x18 }
  - { offsetInCU: 0x1220B, offset: 0x2715C, size: 0x8, addend: 0x0, symName: __ZNSt3__114__split_bufferIPP9MCTS_moveRNS_9allocatorIS3_EEE21_ConstructTransactionD2B8ne180100Ev, symObjAddr: 0xB134, symBinAddr: 0x10000D898, symSize: 0x20 }
  - { offsetInCU: 0x12235, offset: 0x27186, size: 0x8, addend: 0x0, symName: __ZNKSt3__113move_iteratorIPPP9MCTS_moveE4baseB8ne180100Ev, symObjAddr: 0xB1CC, symBinAddr: 0x10000D930, symSize: 0x18 }
  - { offsetInCU: 0x1225B, offset: 0x271AC, size: 0x8, addend: 0x0, symName: __ZNSt3__113move_iteratorIPPP9MCTS_moveEC2B8ne180100ES4_, symObjAddr: 0xB1E4, symBinAddr: 0x10000D948, symSize: 0x20 }
  - { offsetInCU: 0x12293, offset: 0x271E4, size: 0x8, addend: 0x0, symName: __ZNSt3__19allocatorIPP9MCTS_moveE9constructB8ne180100IS3_JRKS3_EEEvPT_DpOT0_, symObjAddr: 0xB204, symBinAddr: 0x10000D968, symSize: 0x28 }
  - { offsetInCU: 0x122E9, offset: 0x2723A, size: 0x8, addend: 0x0, symName: __ZNSt3__19allocatorIP9MCTS_moveE8allocateB8ne180100Em, symObjAddr: 0xB22C, symBinAddr: 0x10000D990, symSize: 0x58 }
  - { offsetInCU: 0x12327, offset: 0x27278, size: 0x8, addend: 0x0, symName: __ZNSt3__116allocator_traitsINS_9allocatorIP9MCTS_moveEEE8max_sizeB8ne180100IS4_vEEmRKS4_, symObjAddr: 0xB284, symBinAddr: 0x10000D9E8, symSize: 0x24 }
  - { offsetInCU: 0x12355, offset: 0x272A6, size: 0x8, addend: 0x0, symName: __ZNKSt3__19allocatorIP9MCTS_moveE8max_sizeB8ne180100Ev, symObjAddr: 0xB2A8, symBinAddr: 0x10000DA0C, symSize: 0x14 }
  - { offsetInCU: 0x12385, offset: 0x272D6, size: 0x8, addend: 0x0, symName: __ZNKSt3__123__move_backward_trivialclB8ne180100IPP9MCTS_moveS4_Li0EEENS_4pairIPT_PT0_EES7_S7_S9_, symObjAddr: 0xB438, symBinAddr: 0x10000DB9C, symSize: 0x48 }
  - { offsetInCU: 0x123ED, offset: 0x2733E, size: 0x8, addend: 0x0, symName: __ZNSt3__14pairIPPP9MCTS_moveS4_EC1B8ne180100IRS4_S7_Li0EEEOT_OT0_, symObjAddr: 0xB548, symBinAddr: 0x10000DCAC, symSize: 0x3C }
  - { offsetInCU: 0x1244B, offset: 0x2739C, size: 0x8, addend: 0x0, symName: __ZNSt3__14pairIPPP9MCTS_moveS4_EC2B8ne180100IRS4_S7_Li0EEEOT_OT0_, symObjAddr: 0xB584, symBinAddr: 0x10000DCE8, symSize: 0x34 }
  - { offsetInCU: 0x124A9, offset: 0x273FA, size: 0x8, addend: 0x0, symName: __ZNSt3__114__split_bufferIPP9MCTS_moveRNS_9allocatorIS3_EEEC2EmmS6_, symObjAddr: 0xB60C, symBinAddr: 0x10000DD1C, symSize: 0xD4 }
  - { offsetInCU: 0x1251D, offset: 0x2746E, size: 0x8, addend: 0x0, symName: __ZNSt3__117__compressed_pairIPPP9MCTS_moveRNS_9allocatorIS3_EEEC1B8ne180100IDnS7_EEOT_OT0_, symObjAddr: 0xB6E0, symBinAddr: 0x10000DDF0, symSize: 0x3C }
  - { offsetInCU: 0x12575, offset: 0x274C6, size: 0x8, addend: 0x0, symName: __ZNSt3__117__compressed_pairIPPP9MCTS_moveRNS_9allocatorIS3_EEEC2B8ne180100IDnS7_EEOT_OT0_, symObjAddr: 0xB75C, symBinAddr: 0x10000DE6C, symSize: 0x48 }
  - { offsetInCU: 0x125CD, offset: 0x2751E, size: 0x8, addend: 0x0, symName: __ZNSt3__122__compressed_pair_elemIRNS_9allocatorIPP9MCTS_moveEELi1ELb0EEC2B8ne180100IS6_vEEOT_, symObjAddr: 0xB7A4, symBinAddr: 0x10000DEB4, symSize: 0x20 }
  - { offsetInCU: 0x1260F, offset: 0x27560, size: 0x8, addend: 0x0, symName: __ZNSt3__19allocatorIPP9MCTS_moveE8allocateB8ne180100Em, symObjAddr: 0xB7C4, symBinAddr: 0x10000DED4, symSize: 0x58 }
  - { offsetInCU: 0x1264D, offset: 0x2759E, size: 0x8, addend: 0x0, symName: __ZNSt3__116allocator_traitsINS_9allocatorIPP9MCTS_moveEEE8max_sizeB8ne180100IS5_vEEmRKS5_, symObjAddr: 0xB81C, symBinAddr: 0x10000DF2C, symSize: 0x24 }
  - { offsetInCU: 0x1267B, offset: 0x275CC, size: 0x8, addend: 0x0, symName: __ZNKSt3__19allocatorIPP9MCTS_moveE8max_sizeB8ne180100Ev, symObjAddr: 0xB840, symBinAddr: 0x10000DF50, symSize: 0x14 }
  - { offsetInCU: 0x126A1, offset: 0x275F2, size: 0x8, addend: 0x0, symName: __ZNSt3__122__allocator_destructorINS_9allocatorIP9MCTS_moveEEEC2B8ne180100ERS4_m, symObjAddr: 0xB854, symBinAddr: 0x10000DF64, symSize: 0x2C }
  - { offsetInCU: 0x126E7, offset: 0x27638, size: 0x8, addend: 0x0, symName: __ZNSt3__110unique_ptrIPP9MCTS_moveNS_22__allocator_destructorINS_9allocatorIS2_EEEEEC2B8ne180100ILb1EvEES3_NS_16__dependent_typeINS_27__unique_ptr_deleter_sfinaeIS7_EEXT_EE20__good_rval_ref_typeE, symObjAddr: 0xB880, symBinAddr: 0x10000DF90, symSize: 0x48 }
  - { offsetInCU: 0x12738, offset: 0x27689, size: 0x8, addend: 0x0, symName: __ZNSt3__117__compressed_pairIPP9MCTS_moveNS_22__allocator_destructorINS_9allocatorIS2_EEEEEC1B8ne180100IRS3_S7_EEOT_OT0_, symObjAddr: 0xB8C8, symBinAddr: 0x10000DFD8, symSize: 0x3C }
  - { offsetInCU: 0x12790, offset: 0x276E1, size: 0x8, addend: 0x0, symName: __ZNSt3__117__compressed_pairIPP9MCTS_moveNS_22__allocator_destructorINS_9allocatorIS2_EEEEEC2B8ne180100IRS3_S7_EEOT_OT0_, symObjAddr: 0xB904, symBinAddr: 0x10000E014, symSize: 0x48 }
  - { offsetInCU: 0x127E8, offset: 0x27739, size: 0x8, addend: 0x0, symName: __ZNSt3__122__compressed_pair_elemIPP9MCTS_moveLi0ELb0EEC2B8ne180100IRS3_vEEOT_, symObjAddr: 0xB94C, symBinAddr: 0x10000E05C, symSize: 0x24 }
  - { offsetInCU: 0x1282A, offset: 0x2777B, size: 0x8, addend: 0x0, symName: __ZNSt3__122__compressed_pair_elemINS_22__allocator_destructorINS_9allocatorIP9MCTS_moveEEEELi1ELb0EEC2B8ne180100IS6_vEEOT_, symObjAddr: 0xB970, symBinAddr: 0x10000E080, symSize: 0x24 }
  - { offsetInCU: 0x1286C, offset: 0x277BD, size: 0x8, addend: 0x0, symName: __ZNKSt3__117__compressed_pairIPP9MCTS_moveNS_22__allocator_destructorINS_9allocatorIS2_EEEEE5firstB8ne180100Ev, symObjAddr: 0xB994, symBinAddr: 0x10000E0A4, symSize: 0x24 }
  - { offsetInCU: 0x12892, offset: 0x277E3, size: 0x8, addend: 0x0, symName: __ZNKSt3__122__compressed_pair_elemIPP9MCTS_moveLi0ELb0EE5__getB8ne180100Ev, symObjAddr: 0xB9B8, symBinAddr: 0x10000E0C8, symSize: 0x14 }
  - { offsetInCU: 0x128B8, offset: 0x27809, size: 0x8, addend: 0x0, symName: __ZNSt3__117__compressed_pairIPP9MCTS_moveNS_22__allocator_destructorINS_9allocatorIS2_EEEEE5firstB8ne180100Ev, symObjAddr: 0xB9CC, symBinAddr: 0x10000E0DC, symSize: 0x24 }
  - { offsetInCU: 0x128DE, offset: 0x2782F, size: 0x8, addend: 0x0, symName: __ZNSt3__122__compressed_pair_elemIPP9MCTS_moveLi0ELb0EE5__getB8ne180100Ev, symObjAddr: 0xB9F0, symBinAddr: 0x10000E100, symSize: 0x14 }
  - { offsetInCU: 0x12904, offset: 0x27855, size: 0x8, addend: 0x0, symName: __ZNSt3__117__compressed_pairIPPP9MCTS_moveNS_9allocatorIS3_EEE5firstB8ne180100Ev, symObjAddr: 0xBA04, symBinAddr: 0x10000E114, symSize: 0x24 }
  - { offsetInCU: 0x1292A, offset: 0x2787B, size: 0x8, addend: 0x0, symName: __ZNSt3__122__compressed_pair_elemIPPP9MCTS_moveLi0ELb0EE5__getB8ne180100Ev, symObjAddr: 0xBA28, symBinAddr: 0x10000E138, symSize: 0x14 }
  - { offsetInCU: 0x12950, offset: 0x278A1, size: 0x8, addend: 0x0, symName: __ZNSt3__117__compressed_pairIPPP9MCTS_moveRNS_9allocatorIS3_EEE5firstB8ne180100Ev, symObjAddr: 0xBA3C, symBinAddr: 0x10000E14C, symSize: 0x24 }
  - { offsetInCU: 0x12976, offset: 0x278C7, size: 0x8, addend: 0x0, symName: __ZNSt3__110unique_ptrIPP9MCTS_moveNS_22__allocator_destructorINS_9allocatorIS2_EEEEED2B8ne180100Ev, symObjAddr: 0xBA60, symBinAddr: 0x10000E170, symSize: 0x30 }
  - { offsetInCU: 0x129A0, offset: 0x278F1, size: 0x8, addend: 0x0, symName: __ZNSt3__110unique_ptrIPP9MCTS_moveNS_22__allocator_destructorINS_9allocatorIS2_EEEEE5resetB8ne180100ES3_, symObjAddr: 0xBA90, symBinAddr: 0x10000E1A0, symSize: 0x78 }
  - { offsetInCU: 0x129E4, offset: 0x27935, size: 0x8, addend: 0x0, symName: __ZNSt3__117__compressed_pairIPP9MCTS_moveNS_22__allocator_destructorINS_9allocatorIS2_EEEEE6secondB8ne180100Ev, symObjAddr: 0xBB08, symBinAddr: 0x10000E218, symSize: 0x28 }
  - { offsetInCU: 0x12A0A, offset: 0x2795B, size: 0x8, addend: 0x0, symName: __ZNSt3__122__allocator_destructorINS_9allocatorIP9MCTS_moveEEEclB8ne180100EPS3_, symObjAddr: 0xBB30, symBinAddr: 0x10000E240, symSize: 0x34 }
  - { offsetInCU: 0x12A3E, offset: 0x2798F, size: 0x8, addend: 0x0, symName: __ZNSt3__122__compressed_pair_elemINS_22__allocator_destructorINS_9allocatorIP9MCTS_moveEEEELi1ELb0EE5__getB8ne180100Ev, symObjAddr: 0xBB64, symBinAddr: 0x10000E274, symSize: 0x14 }
  - { offsetInCU: 0x12A64, offset: 0x279B5, size: 0x8, addend: 0x0, symName: __ZNSt3__114__split_bufferIPP9MCTS_moveRNS_9allocatorIS3_EEED2Ev, symObjAddr: 0xBB78, symBinAddr: 0x10000E288, symSize: 0x8C }
  - { offsetInCU: 0x12A90, offset: 0x279E1, size: 0x8, addend: 0x0, symName: __ZNSt3__114__split_bufferIPP9MCTS_moveRNS_9allocatorIS3_EEE5clearB8ne180100Ev, symObjAddr: 0xBC04, symBinAddr: 0x10000E314, symSize: 0x28 }
  - { offsetInCU: 0x12AB6, offset: 0x27A07, size: 0x8, addend: 0x0, symName: __ZNKSt3__114__split_bufferIPP9MCTS_moveRNS_9allocatorIS3_EEE8capacityB8ne180100Ev, symObjAddr: 0xBC2C, symBinAddr: 0x10000E33C, symSize: 0x40 }
  - { offsetInCU: 0x12ADC, offset: 0x27A2D, size: 0x8, addend: 0x0, symName: __ZNSt3__114__split_bufferIPP9MCTS_moveRNS_9allocatorIS3_EEE17__destruct_at_endB8ne180100EPS3_, symObjAddr: 0xBC6C, symBinAddr: 0x10000E37C, symSize: 0x2C }
  - { offsetInCU: 0x12B10, offset: 0x27A61, size: 0x8, addend: 0x0, symName: __ZNSt3__114__split_bufferIPP9MCTS_moveRNS_9allocatorIS3_EEE17__destruct_at_endB8ne180100EPS3_NS_17integral_constantIbLb0EEE, symObjAddr: 0xBC98, symBinAddr: 0x10000E3A8, symSize: 0x80 }
  - { offsetInCU: 0x12B50, offset: 0x27AA1, size: 0x8, addend: 0x0, symName: __ZNKSt3__114__split_bufferIPP9MCTS_moveRNS_9allocatorIS3_EEE9__end_capB8ne180100Ev, symObjAddr: 0xBD18, symBinAddr: 0x10000E428, symSize: 0x28 }
  - { offsetInCU: 0x12B76, offset: 0x27AC7, size: 0x8, addend: 0x0, symName: __ZNKSt3__117__compressed_pairIPPP9MCTS_moveRNS_9allocatorIS3_EEE5firstB8ne180100Ev, symObjAddr: 0xBD40, symBinAddr: 0x10000E450, symSize: 0x24 }
  - { offsetInCU: 0x12B9C, offset: 0x27AED, size: 0x8, addend: 0x0, symName: __ZNSt3__19allocatorIP9MCTS_moveE9constructB8ne180100IS2_JS2_EEEvPT_DpOT0_, symObjAddr: 0xBD64, symBinAddr: 0x10000E474, symSize: 0x28 }
  - { offsetInCU: 0x12BF2, offset: 0x27B43, size: 0x8, addend: 0x0, symName: __ZNKSt3__15dequeIP9MCTS_moveNS_9allocatorIS2_EEE5emptyB8ne180100Ev, symObjAddr: 0xBD8C, symBinAddr: 0x10000E49C, symSize: 0x30 }
  - { offsetInCU: 0x12C18, offset: 0x27B69, size: 0x8, addend: 0x0, symName: __ZNSt3__15dequeIP9MCTS_moveNS_9allocatorIS2_EEE5frontEv, symObjAddr: 0xBDBC, symBinAddr: 0x10000E4CC, symSize: 0x50 }
  - { offsetInCU: 0x12C40, offset: 0x27B91, size: 0x8, addend: 0x0, symName: __ZNSt3__15dequeIP9MCTS_moveNS_9allocatorIS2_EEE9pop_frontEv, symObjAddr: 0xBE0C, symBinAddr: 0x10000E51C, symSize: 0xD4 }
  - { offsetInCU: 0x12C95, offset: 0x27BE6, size: 0x8, addend: 0x0, symName: __ZNKSt3__15dequeIP9MCTS_moveNS_9allocatorIS2_EEE23__annotate_shrink_frontB8ne180100Emm, symObjAddr: 0xBEF4, symBinAddr: 0x10000E604, symSize: 0x18 }
  - { offsetInCU: 0x12CD9, offset: 0x27C2A, size: 0x8, addend: 0x0, symName: __ZNSt3__15dequeIP9MCTS_moveNS_9allocatorIS2_EEE26__maybe_remove_front_spareB8ne180100Eb, symObjAddr: 0xBF0C, symBinAddr: 0x10000E61C, symSize: 0xEC }
  - { offsetInCU: 0x12D0E, offset: 0x27C5F, size: 0x8, addend: 0x0, symName: __ZNKSt3__15dequeIP9MCTS_moveNS_9allocatorIS2_EEE20__front_spare_blocksB8ne180100Ev, symObjAddr: 0xBFF8, symBinAddr: 0x10000E708, symSize: 0x2C }
  - { offsetInCU: 0x12D34, offset: 0x27C85, size: 0x8, addend: 0x0, symName: __ZNKSt3__16vectorIhNS_9allocatorIhEEE11__make_iterB8ne180100EPKh, symObjAddr: 0xC024, symBinAddr: 0x10000E734, symSize: 0x30 }
  - { offsetInCU: 0x12D69, offset: 0x27CBA, size: 0x8, addend: 0x0, symName: __ZNSt3__111__wrap_iterIPKhEC1B8ne180100ES2_, symObjAddr: 0xC054, symBinAddr: 0x10000E764, symSize: 0x34 }
  - { offsetInCU: 0x12DA1, offset: 0x27CF2, size: 0x8, addend: 0x0, symName: __ZNSt3__111__wrap_iterIPKhEC2B8ne180100ES2_, symObjAddr: 0xC088, symBinAddr: 0x10000E798, symSize: 0x20 }
  - { offsetInCU: 0x12DD9, offset: 0x27D2A, size: 0x8, addend: 0x0, symName: __ZNKSt3__16vectorINS0_IhNS_9allocatorIhEEEENS1_IS3_EEE11__make_iterB8ne180100EPKS3_, symObjAddr: 0xC0A8, symBinAddr: 0x10000E7B8, symSize: 0x30 }
  - { offsetInCU: 0x12E0E, offset: 0x27D5F, size: 0x8, addend: 0x0, symName: __ZNSt3__111__wrap_iterIPKNS_6vectorIhNS_9allocatorIhEEEEEC1B8ne180100ES6_, symObjAddr: 0xC0D8, symBinAddr: 0x10000E7E8, symSize: 0x34 }
  - { offsetInCU: 0x12E46, offset: 0x27D97, size: 0x8, addend: 0x0, symName: __ZNSt3__111__wrap_iterIPKNS_6vectorIhNS_9allocatorIhEEEEEC2B8ne180100ES6_, symObjAddr: 0xC10C, symBinAddr: 0x10000E81C, symSize: 0x20 }
...
